0000 0000 0000 0000 0000 0000 0000 1000 --------  JSRD R5,$1026            0
RD a=$1000 d=0004 CP-1610          (PC = $1000) t=0
RD a=$1001 d=0112 CP-1610          (PC = $1000) t=0
RD a=$1002 d=0026 CP-1610          (PC = $1000) t=0
0000 0000 0000 0000 0000 1003 0000 1026 --------  MVII #$02F1,R6           13
RD a=$1026 d=02BE CP-1610          (PC = $1026) t=13
RD a=$1027 d=02F1 CP-1610          (PC = $1026) t=13
0000 0000 0000 0000 0000 1003 02F1 1028 ------i-  JSR  R5,$1A83           22
RD a=$1028 d=0004 CP-1610          (PC = $1028) t=22
RD a=$1029 d=0118 CP-1610          (PC = $1028) t=22
RD a=$102A d=0283 CP-1610          (PC = $1028) t=22
0000 0000 0000 0000 0000 102B 02F1 1A83 ------i-  PSHR R5            35
RD a=$1A83 d=0275 CP-1610          (PC = $1A83) t=35
WR a=$02F1 d=102B CP-1610          (PC = $1A83) t=35
0000 0000 0000 0000 0000 102B 02F2 1A84 --------  PSHR R0            44
RD a=$1A84 d=0270 CP-1610          (PC = $1A84) t=44
WR a=$02F2 d=0000 CP-1610          (PC = $1A84) t=44
0000 0000 0000 0000 0000 102B 02F3 1A85 --------  PSHR R1            53
RD a=$1A85 d=0271 CP-1610          (PC = $1A85) t=53
WR a=$02F3 d=0000 CP-1610          (PC = $1A85) t=53
0000 0000 0000 0000 0000 102B 02F4 1A86 --------  MVII #$01F0,R4           62
RD a=$1A86 d=02BC CP-1610          (PC = $1A86) t=62
RD a=$1A87 d=01F0 CP-1610          (PC = $1A86) t=62
0000 0000 0000 0000 01F0 102B 02F4 1A88 ------i-  MVII #$000E,R0           70
RD a=$1A88 d=02B8 CP-1610          (PC = $1A88) t=70
RD a=$1A89 d=000E CP-1610          (PC = $1A88) t=70
000E 0000 0000 0000 01F0 102B 02F4 1A8A ------i-  JSR  R5,$1738           78
RD a=$1A8A d=0004 CP-1610          (PC = $1A8A) t=78
RD a=$1A8B d=0114 CP-1610          (PC = $1A8A) t=78
RD a=$1A8C d=0338 CP-1610          (PC = $1A8A) t=78
000E 0000 0000 0000 01F0 1A8D 02F4 1738 ------i-  PSHR R5            91
RD a=$1738 d=0275 CP-1610          (PC = $1738) t=91
WR a=$02F4 d=1A8D CP-1610          (PC = $1738) t=91
000E 0000 0000 0000 01F0 1A8D 02F5 1739 --------  CLRR R5           100
RD a=$1739 d=01ED CP-1610          (PC = $1739) t=100
000E 0000 0000 0000 01F0 0000 02F5 173A -Z----i-  PSHR R0           106
RD a=$173A d=0270 CP-1610          (PC = $173A) t=106
WR a=$02F5 d=000E CP-1610          (PC = $173A) t=106
000E 0000 0000 0000 01F0 0000 02F6 173B -Z------  MVO@ R5,R4          115
RD a=$173B d=0265 CP-1610          (PC = $173B) t=115
WR a=$01F0 d=0000 CP-1610          (PC = $173B) t=115
000E 0000 0000 0000 01F1 0000 02F6 173C -Z------  DECR R0           124
RD a=$173C d=0010 CP-1610          (PC = $173C) t=124
000D 0000 0000 0000 01F1 0000 02F6 173D ------i-  BNEQ $173B           130
RD a=$173D d=022C CP-1610          (PC = $173D) t=130
RD a=$173E d=0003 CP-1610          (PC = $173D) t=130
000D 0000 0000 0000 01F1 0000 02F6 173B ------i-  MVO@ R5,R4          139
WR a=$01F1 d=0000 CP-1610          (PC = $173B) t=139
000D 0000 0000 0000 01F2 0000 02F6 173C --------  DECR R0           148
000C 0000 0000 0000 01F2 0000 02F6 173D ------i-  BNEQ $173B           154
000C 0000 0000 0000 01F2 0000 02F6 173B ------i-  MVO@ R5,R4          163
WR a=$01F2 d=0000 CP-1610          (PC = $173B) t=163
000C 0000 0000 0000 01F3 0000 02F6 173C --------  DECR R0           172
000B 0000 0000 0000 01F3 0000 02F6 173D ------i-  BNEQ $173B           178
000B 0000 0000 0000 01F3 0000 02F6 173B ------i-  MVO@ R5,R4          187
WR a=$01F3 d=0000 CP-1610          (PC = $173B) t=187
000B 0000 0000 0000 01F4 0000 02F6 173C --------  DECR R0           196
000A 0000 0000 0000 01F4 0000 02F6 173D ------i-  BNEQ $173B           202
000A 0000 0000 0000 01F4 0000 02F6 173B ------i-  MVO@ R5,R4          211
WR a=$01F4 d=0000 CP-1610          (PC = $173B) t=211
000A 0000 0000 0000 01F5 0000 02F6 173C --------  DECR R0           220
0009 0000 0000 0000 01F5 0000 02F6 173D ------i-  BNEQ $173B           226
0009 0000 0000 0000 01F5 0000 02F6 173B ------i-  MVO@ R5,R4          235
WR a=$01F5 d=0000 CP-1610          (PC = $173B) t=235
0009 0000 0000 0000 01F6 0000 02F6 173C --------  DECR R0           244
0008 0000 0000 0000 01F6 0000 02F6 173D ------i-  BNEQ $173B           250
0008 0000 0000 0000 01F6 0000 02F6 173B ------i-  MVO@ R5,R4          259
WR a=$01F6 d=0000 CP-1610          (PC = $173B) t=259
0008 0000 0000 0000 01F7 0000 02F6 173C --------  DECR R0           268
0007 0000 0000 0000 01F7 0000 02F6 173D ------i-  BNEQ $173B           274
0007 0000 0000 0000 01F7 0000 02F6 173B ------i-  MVO@ R5,R4          283
WR a=$01F7 d=0000 CP-1610          (PC = $173B) t=283
0007 0000 0000 0000 01F8 0000 02F6 173C --------  DECR R0           292
0006 0000 0000 0000 01F8 0000 02F6 173D ------i-  BNEQ $173B           298
0006 0000 0000 0000 01F8 0000 02F6 173B ------i-  MVO@ R5,R4          307
WR a=$01F8 d=0000 CP-1610          (PC = $173B) t=307
0006 0000 0000 0000 01F9 0000 02F6 173C --------  DECR R0           316
0005 0000 0000 0000 01F9 0000 02F6 173D ------i-  BNEQ $173B           322
0005 0000 0000 0000 01F9 0000 02F6 173B ------i-  MVO@ R5,R4          331
WR a=$01F9 d=0000 CP-1610          (PC = $173B) t=331
0005 0000 0000 0000 01FA 0000 02F6 173C --------  DECR R0           340
0004 0000 0000 0000 01FA 0000 02F6 173D ------i-  BNEQ $173B           346
0004 0000 0000 0000 01FA 0000 02F6 173B ------i-  MVO@ R5,R4          355
WR a=$01FA d=0000 CP-1610          (PC = $173B) t=355
0004 0000 0000 0000 01FB 0000 02F6 173C --------  DECR R0           364
0003 0000 0000 0000 01FB 0000 02F6 173D ------i-  BNEQ $173B           370
0003 0000 0000 0000 01FB 0000 02F6 173B ------i-  MVO@ R5,R4          379
WR a=$01FB d=0000 CP-1610          (PC = $173B) t=379
0003 0000 0000 0000 01FC 0000 02F6 173C --------  DECR R0           388
0002 0000 0000 0000 01FC 0000 02F6 173D ------i-  BNEQ $173B           394
0002 0000 0000 0000 01FC 0000 02F6 173B ------i-  MVO@ R5,R4          403
WR a=$01FC d=0000 CP-1610          (PC = $173B) t=403
0002 0000 0000 0000 01FD 0000 02F6 173C --------  DECR R0           412
0001 0000 0000 0000 01FD 0000 02F6 173D ------i-  BNEQ $173B           418
0001 0000 0000 0000 01FD 0000 02F6 173B ------i-  MVO@ R5,R4          427
WR a=$01FD d=0000 CP-1610          (PC = $173B) t=427
0001 0000 0000 0000 01FE 0000 02F6 173C --------  DECR R0           436
0000 0000 0000 0000 01FE 0000 02F6 173D -Z----i-  BNEQ $173B           442
0000 0000 0000 0000 01FE 0000 02F6 173F -Z----i-  PULR R0           449
RD a=$173F d=02B0 CP-1610          (PC = $173F) t=449
RD a=$02F5 d=000E CP-1610          (PC = $173F) t=449
000E 0000 0000 0000 01FE 0000 02F5 1740 -Z----i-  PULR R7           461
RD a=$1740 d=02B7 CP-1610          (PC = $1740) t=461
RD a=$02F4 d=1A8D CP-1610          (PC = $1740) t=461
000E 0000 0000 0000 01FE 0000 02F4 1A8D -Z----i-  MVII #$0038,R0          473
RD a=$1A8D d=02B8 CP-1610          (PC = $1A8D) t=473
RD a=$1A8E d=0038 CP-1610          (PC = $1A8D) t=473
0038 0000 0000 0000 01FE 0000 02F4 1A8F -Z----i-  MVO  R0,$01F8          481
RD a=$1A8F d=0240 CP-1610          (PC = $1A8F) t=481
RD a=$1A90 d=01F8 CP-1610          (PC = $1A8F) t=481
WR a=$01F8 d=0038 CP-1610          (PC = $1A8F) t=481
0038 0000 0000 0000 01FE 0000 02F4 1A91 -Z------  PULR R1           492
RD a=$1A91 d=02B1 CP-1610          (PC = $1A91) t=492
RD a=$02F3 d=0000 CP-1610          (PC = $1A91) t=492
0038 0000 0000 0000 01FE 0000 02F3 1A92 -Z----i-  PULR R0           504
RD a=$1A92 d=02B0 CP-1610          (PC = $1A92) t=504
RD a=$02F2 d=0000 CP-1610          (PC = $1A92) t=504
0000 0000 0000 0000 01FE 0000 02F2 1A93 -Z----i-  PULR R7           516
RD a=$1A93 d=02B7 CP-1610          (PC = $1A93) t=516
RD a=$02F1 d=102B CP-1610          (PC = $1A93) t=516
0000 0000 0000 0000 01FE 0000 02F1 102B -Z----i-  MVII #$0026,R0          528
RD a=$102B d=02B8 CP-1610          (PC = $102B) t=528
RD a=$102C d=0026 CP-1610          (PC = $102B) t=528
0026 0000 0000 0000 01FE 0000 02F1 102D -Z----i-  MVO  R0,$0100          536
RD a=$102D d=0240 CP-1610          (PC = $102D) t=536
RD a=$102E d=0100 CP-1610          (PC = $102D) t=536
WR a=$0100 d=0026 CP-1610          (PC = $102D) t=536
0026 0000 0000 0000 01FE 0000 02F1 102F -Z------  MVII #$0011,R0          547
RD a=$102F d=02B8 CP-1610          (PC = $102F) t=547
RD a=$1030 d=0011 CP-1610          (PC = $102F) t=547
0011 0000 0000 0000 01FE 0000 02F1 1031 -Z----i-  MVO  R0,$0101          555
RD a=$1031 d=0240 CP-1610          (PC = $1031) t=555
RD a=$1032 d=0101 CP-1610          (PC = $1031) t=555
WR a=$0101 d=0011 CP-1610          (PC = $1031) t=555
0011 0000 0000 0000 01FE 0000 02F1 1033 -Z------  SDBD            566
RD a=$1033 d=0001 CP-1610          (PC = $1033) t=566
0011 0000 0000 0000 01FE 0000 02F1 1034 -Z---D--  MVII #$5014,R0          570
RD a=$1034 d=02B8 CP-1610          (PC = $1034) t=570
RD a=$1035 d=0014 CP-1610          (PC = $1034) t=570
RD a=$1036 d=0050 CP-1610          (PC = $1034) t=570
5014 0000 0000 0000 01FE 0000 02F1 1037 -Z----i-  MVO  R0,$02F0          580
RD a=$1037 d=0240 CP-1610          (PC = $1037) t=580
RD a=$1038 d=02F0 CP-1610          (PC = $1037) t=580
WR a=$02F0 d=5014 CP-1610          (PC = $1037) t=580
5014 0000 0000 0000 01FE 0000 02F1 1039 -Z------  JSR  R5,$101D          591
RD a=$1039 d=0004 CP-1610          (PC = $1039) t=591
RD a=$103A d=0110 CP-1610          (PC = $1039) t=591
RD a=$103B d=001D CP-1610          (PC = $1039) t=591
5014 0000 0000 0000 01FE 103C 02F1 101D -Z----i-  MVI@ R5,R1          604
RD a=$101D d=02A9 CP-1610          (PC = $101D) t=604
RD a=$103C d=0070 CP-1610          (PC = $101D) t=604
5014 0070 0000 0000 01FE 103D 02F1 101E -Z----i-  SWAP R1           612
RD a=$101E d=0041 CP-1610          (PC = $101E) t=612
5014 7000 0000 0000 01FE 103D 02F1 101F --------  MVI@ R1,R0          618
RD a=$101F d=0288 CP-1610          (PC = $101F) t=618
RD a=$7000 d=FFFF CP-1610          (PC = $101F) t=618
FFFF 7000 0000 0000 01FE 103D 02F1 1020 ------i-  SWAP R0           626
RD a=$1020 d=0040 CP-1610          (PC = $1020) t=626
FFFF 7000 0000 0000 01FE 103D 02F1 1021 S-------  ANDI #$00FC,R0          632
RD a=$1021 d=03B8 CP-1610          (PC = $1021) t=632
RD a=$1022 d=00FC CP-1610          (PC = $1021) t=632
00FC 7000 0000 0000 01FE 103D 02F1 1023 ------i-  BNEQ $1003           640
RD a=$1023 d=022C CP-1610          (PC = $1023) t=640
RD a=$1024 d=0021 CP-1610          (PC = $1023) t=640
00FC 7000 0000 0000 01FE 103D 02F1 1003 ------i-  JR   R5           649
RD a=$1003 d=00AF CP-1610          (PC = $1003) t=649
00FC 7000 0000 0000 01FE 103D 02F1 103D ------i-  JSR  R5,$101D          656
RD a=$103D d=0004 CP-1610          (PC = $103D) t=656
RD a=$103E d=0110 CP-1610          (PC = $103D) t=656
RD a=$103F d=001D CP-1610          (PC = $103D) t=656
00FC 7000 0000 0000 01FE 1040 02F1 101D ------i-  MVI@ R5,R1          669
RD a=$1040 d=0048 CP-1610          (PC = $101D) t=669
00FC 0048 0000 0000 01FE 1041 02F1 101E ------i-  SWAP R1           677
00FC 4800 0000 0000 01FE 1041 02F1 101F --------  MVI@ R1,R0          683
RD a=$4800 d=0002 CP-1610          (PC = $101F) t=683
0002 4800 0000 0000 01FE 1041 02F1 1020 ------i-  SWAP R0           691
0200 4800 0000 0000 01FE 1041 02F1 1021 --------  ANDI #$00FC,R0          697
0000 4800 0000 0000 01FE 1041 02F1 1023 -Z----i-  BNEQ $1003           705
0000 4800 0000 0000 01FE 1041 02F1 1025 -Z----i-  JR   R1           712
RD a=$1025 d=008F CP-1610          (PC = $1025) t=712
0000 4800 0000 0000 01FE 1041 02F1 4800 ------i-  EIS             719
RD a=$4800 d=0002 CP-1610          (PC = $4800) t=719
0000 4800 0000 0000 01FE 1041 02F1 4801 ----I---  DIS             723
RD a=$4801 d=0003 CP-1610          (PC = $4801) t=723
0000 4800 0000 0000 01FE 1041 02F1 4802 --------  SDBD            727
RD a=$4802 d=0001 CP-1610          (PC = $4802) t=727
0000 4800 0000 0000 01FE 1041 02F1 4803 -----D--  NOP             731
RD a=$4803 d=0034 CP-1610          (PC = $4803) t=731
0000 4800 0000 0000 01FE 1041 02F1 4804 ------i-  TCI             737
RD a=$4804 d=0005 CP-1610          (PC = $4804) t=737
0000 4800 0000 0000 01FE 1041 02F1 4805 --------  SETC            741
RD a=$4805 d=0007 CP-1610          (PC = $4805) t=741
0000 4800 0000 0000 01FE 1041 02F1 4806 ---C----  CLRC            745
RD a=$4806 d=0006 CP-1610          (PC = $4806) t=745
0000 4800 0000 0000 01FE 1041 02F1 4807 --------  CLRR R0           749
RD a=$4807 d=01C0 CP-1610          (PC = $4807) t=749
0000 4800 0000 0000 01FE 1041 02F1 4808 -Z----i-  RSWD R0           755
RD a=$4808 d=0038 CP-1610          (PC = $4808) t=755
0000 4800 0000 0000 01FE 1041 02F1 4809 --------  J    $480D           761
RD a=$4809 d=0004 CP-1610          (PC = $4809) t=761
RD a=$480A d=0348 CP-1610          (PC = $4809) t=761
RD a=$480B d=000D CP-1610          (PC = $4809) t=761
0000 4800 0000 0000 01FE 1041 02F1 480D ------i-  CLRR R0           774
RD a=$480D d=01C0 CP-1610          (PC = $480D) t=774
0000 4800 0000 0000 01FE 1041 02F1 480E -Z----i-  RSWD R0           780
RD a=$480E d=0038 CP-1610          (PC = $480E) t=780
0000 4800 0000 0000 01FE 1041 02F1 480F --------  JE   $4813           786
RD a=$480F d=0004 CP-1610          (PC = $480F) t=786
RD a=$4810 d=0349 CP-1610          (PC = $480F) t=786
RD a=$4811 d=0013 CP-1610          (PC = $480F) t=786
0000 4800 0000 0000 01FE 1041 02F1 4813 ----I-i-  CLRR R0           799
RD a=$4813 d=01C0 CP-1610          (PC = $4813) t=799
0000 4800 0000 0000 01FE 1041 02F1 4814 -Z--I-i-  RSWD R0           805
RD a=$4814 d=0038 CP-1610          (PC = $4814) t=805
0000 4800 0000 0000 01FE 1041 02F1 4815 ----I---  JD   $4819           811
RD a=$4815 d=0004 CP-1610          (PC = $4815) t=811
RD a=$4816 d=034A CP-1610          (PC = $4815) t=811
RD a=$4817 d=0019 CP-1610          (PC = $4815) t=811
0000 4800 0000 0000 01FE 1041 02F1 4819 --------  CLRR R0           824
RD a=$4819 d=01C0 CP-1610          (PC = $4819) t=824
0000 4800 0000 0000 01FE 1041 02F1 481A -Z----i-  RSWD R0           830
RD a=$481A d=0038 CP-1610          (PC = $481A) t=830
0000 4800 0000 0000 01FE 1041 02F1 481B --------  JSR  R4,$481F          836
RD a=$481B d=0004 CP-1610          (PC = $481B) t=836
RD a=$481C d=0048 CP-1610          (PC = $481B) t=836
RD a=$481D d=001F CP-1610          (PC = $481B) t=836
0000 4800 0000 0000 481E 1041 02F1 481F ------i-  CLRR R0           849
RD a=$481F d=01C0 CP-1610          (PC = $481F) t=849
0000 4800 0000 0000 481E 1041 02F1 4820 -Z----i-  RSWD R0           855
RD a=$4820 d=0038 CP-1610          (PC = $4820) t=855
0000 4800 0000 0000 481E 1041 02F1 4821 --------  JSR  R5,$4825          861
RD a=$4821 d=0004 CP-1610          (PC = $4821) t=861
RD a=$4822 d=0148 CP-1610          (PC = $4821) t=861
RD a=$4823 d=0025 CP-1610          (PC = $4821) t=861
0000 4800 0000 0000 481E 4824 02F1 4825 ------i-  CLRR R0           874
RD a=$4825 d=01C0 CP-1610          (PC = $4825) t=874
0000 4800 0000 0000 481E 4824 02F1 4826 -Z----i-  RSWD R0           880
RD a=$4826 d=0038 CP-1610          (PC = $4826) t=880
0000 4800 0000 0000 481E 4824 02F1 4827 --------  JSR  R6,$482B          886
RD a=$4827 d=0004 CP-1610          (PC = $4827) t=886
RD a=$4828 d=0248 CP-1610          (PC = $4827) t=886
RD a=$4829 d=002B CP-1610          (PC = $4827) t=886
0000 4800 0000 0000 481E 4824 482A 482B ------i-  CLRR R0           899
RD a=$482B d=01C0 CP-1610          (PC = $482B) t=899
0000 4800 0000 0000 481E 4824 482A 482C -Z----i-  RSWD R0           905
RD a=$482C d=0038 CP-1610          (PC = $482C) t=905
0000 4800 0000 0000 481E 4824 482A 482D --------  JSRE R4,$4831          911
RD a=$482D d=0004 CP-1610          (PC = $482D) t=911
RD a=$482E d=0049 CP-1610          (PC = $482D) t=911
RD a=$482F d=0031 CP-1610          (PC = $482D) t=911
0000 4800 0000 0000 4830 4824 482A 4831 ----I-i-  CLRR R0           924
RD a=$4831 d=01C0 CP-1610          (PC = $4831) t=924
0000 4800 0000 0000 4830 4824 482A 4832 -Z--I-i-  RSWD R0           930
RD a=$4832 d=0038 CP-1610          (PC = $4832) t=930
0000 4800 0000 0000 4830 4824 482A 4833 ----I---  JSRE R5,$4837          936
RD a=$4833 d=0004 CP-1610          (PC = $4833) t=936
RD a=$4834 d=0149 CP-1610          (PC = $4833) t=936
RD a=$4835 d=0037 CP-1610          (PC = $4833) t=936
0000 4800 0000 0000 4830 4836 482A 4837 ----I-i-  CLRR R0           949
RD a=$4837 d=01C0 CP-1610          (PC = $4837) t=949
0000 4800 0000 0000 4830 4836 482A 4838 -Z--I-i-  RSWD R0           955
RD a=$4838 d=0038 CP-1610          (PC = $4838) t=955
0000 4800 0000 0000 4830 4836 482A 4839 ----I---  JSRE R6,$483D          961
RD a=$4839 d=0004 CP-1610          (PC = $4839) t=961
RD a=$483A d=0249 CP-1610          (PC = $4839) t=961
RD a=$483B d=003D CP-1610          (PC = $4839) t=961
0000 4800 0000 0000 4830 4836 483C 483D ----I-i-  CLRR R0           974
RD a=$483D d=01C0 CP-1610          (PC = $483D) t=974
0000 4800 0000 0000 4830 4836 483C 483E -Z--I-i-  RSWD R0           980
RD a=$483E d=0038 CP-1610          (PC = $483E) t=980
0000 4800 0000 0000 4830 4836 483C 483F ----I---  JSRD R4,$4843          986
RD a=$483F d=0004 CP-1610          (PC = $483F) t=986
RD a=$4840 d=004A CP-1610          (PC = $483F) t=986
RD a=$4841 d=0043 CP-1610          (PC = $483F) t=986
0000 4800 0000 0000 4842 4836 483C 4843 --------  CLRR R0           999
RD a=$4843 d=01C0 CP-1610          (PC = $4843) t=999
0000 4800 0000 0000 4842 4836 483C 4844 -Z----i-  RSWD R0          1005
RD a=$4844 d=0038 CP-1610          (PC = $4844) t=1005
0000 4800 0000 0000 4842 4836 483C 4845 --------  JSRD R5,$4849         1011
RD a=$4845 d=0004 CP-1610          (PC = $4845) t=1011
RD a=$4846 d=014A CP-1610          (PC = $4845) t=1011
RD a=$4847 d=0049 CP-1610          (PC = $4845) t=1011
0000 4800 0000 0000 4842 4848 483C 4849 --------  CLRR R0          1024
RD a=$4849 d=01C0 CP-1610          (PC = $4849) t=1024
0000 4800 0000 0000 4842 4848 483C 484A -Z----i-  RSWD R0          1030
RD a=$484A d=0038 CP-1610          (PC = $484A) t=1030
0000 4800 0000 0000 4842 4848 483C 484B --------  JSRD R6,$484F         1036
RD a=$484B d=0004 CP-1610          (PC = $484B) t=1036
RD a=$484C d=024A CP-1610          (PC = $484B) t=1036
RD a=$484D d=004F CP-1610          (PC = $484B) t=1036
0000 4800 0000 0000 4842 4848 484E 484F --------  CLRR R0          1049
RD a=$484F d=01C0 CP-1610          (PC = $484F) t=1049
0000 4800 0000 0000 4842 4848 484E 4850 -Z----i-  RSWD R0          1055
RD a=$4850 d=0038 CP-1610          (PC = $4850) t=1055
0000 4800 0000 0000 4842 4848 484E 4851 --------  INCR R0          1061
RD a=$4851 d=0008 CP-1610          (PC = $4851) t=1061
0001 4800 0000 0000 4842 4848 484E 4852 ------i-  INCR R1          1067
RD a=$4852 d=0009 CP-1610          (PC = $4852) t=1067
0001 4801 0000 0000 4842 4848 484E 4853 ------i-  INCR R2          1073
RD a=$4853 d=000A CP-1610          (PC = $4853) t=1073
0001 4801 0001 0000 4842 4848 484E 4854 ------i-  INCR R3          1079
RD a=$4854 d=000B CP-1610          (PC = $4854) t=1079
0001 4801 0001 0001 4842 4848 484E 4855 ------i-  INCR R4          1085
RD a=$4855 d=000C CP-1610          (PC = $4855) t=1085
0001 4801 0001 0001 4843 4848 484E 4856 ------i-  INCR R5          1091
RD a=$4856 d=000D CP-1610          (PC = $4856) t=1091
0001 4801 0001 0001 4843 4849 484E 4857 ------i-  INCR R6          1097
RD a=$4857 d=000E CP-1610          (PC = $4857) t=1097
0001 4801 0001 0001 4843 4849 484F 4858 ------i-  INCR R7          1104
RD a=$4858 d=000F CP-1610          (PC = $4858) t=1104
0001 4801 0001 0001 4843 4849 484F 485A ------i-  DECR R0          1111
RD a=$485A d=0010 CP-1610          (PC = $485A) t=1111
0000 4801 0001 0001 4843 4849 484F 485B -Z----i-  DECR R1          1117
RD a=$485B d=0011 CP-1610          (PC = $485B) t=1117
0000 4800 0001 0001 4843 4849 484F 485C ------i-  DECR R2          1123
RD a=$485C d=0012 CP-1610          (PC = $485C) t=1123
0000 4800 0000 0001 4843 4849 484F 485D -Z----i-  DECR R3          1129
RD a=$485D d=0013 CP-1610          (PC = $485D) t=1129
0000 4800 0000 0000 4843 4849 484F 485E -Z----i-  DECR R4          1135
RD a=$485E d=0014 CP-1610          (PC = $485E) t=1135
0000 4800 0000 0000 4842 4849 484F 485F ------i-  DECR R5          1141
RD a=$485F d=0015 CP-1610          (PC = $485F) t=1141
0000 4800 0000 0000 4842 4848 484F 4860 ------i-  DECR R6          1147
RD a=$4860 d=0016 CP-1610          (PC = $4860) t=1147
0000 4800 0000 0000 4842 4848 484E 4861 ------i-  COMR R0          1154
RD a=$4861 d=0018 CP-1610          (PC = $4861) t=1154
FFFF 4800 0000 0000 4842 4848 484E 4862 S-----i-  COMR R0          1160
RD a=$4862 d=0018 CP-1610          (PC = $4862) t=1160
0000 4800 0000 0000 4842 4848 484E 4863 -Z----i-  COMR R1          1166
RD a=$4863 d=0019 CP-1610          (PC = $4863) t=1166
0000 B7FF 0000 0000 4842 4848 484E 4864 S-----i-  COMR R1          1172
RD a=$4864 d=0019 CP-1610          (PC = $4864) t=1172
0000 4800 0000 0000 4842 4848 484E 4865 ------i-  COMR R2          1178
RD a=$4865 d=001A CP-1610          (PC = $4865) t=1178
0000 4800 FFFF 0000 4842 4848 484E 4866 S-----i-  COMR R2          1184
RD a=$4866 d=001A CP-1610          (PC = $4866) t=1184
0000 4800 0000 0000 4842 4848 484E 4867 -Z----i-  COMR R3          1190
RD a=$4867 d=001B CP-1610          (PC = $4867) t=1190
0000 4800 0000 FFFF 4842 4848 484E 4868 S-----i-  COMR R3          1196
RD a=$4868 d=001B CP-1610          (PC = $4868) t=1196
0000 4800 0000 0000 4842 4848 484E 4869 -Z----i-  COMR R4          1202
RD a=$4869 d=001C CP-1610          (PC = $4869) t=1202
0000 4800 0000 0000 B7BD 4848 484E 486A S-----i-  COMR R4          1208
RD a=$486A d=001C CP-1610          (PC = $486A) t=1208
0000 4800 0000 0000 4842 4848 484E 486B ------i-  COMR R5          1214
RD a=$486B d=001D CP-1610          (PC = $486B) t=1214
0000 4800 0000 0000 4842 B7B7 484E 486C S-----i-  COMR R5          1220
RD a=$486C d=001D CP-1610          (PC = $486C) t=1220
0000 4800 0000 0000 4842 4848 484E 486D ------i-  COMR R6          1226
RD a=$486D d=001E CP-1610          (PC = $486D) t=1226
0000 4800 0000 0000 4842 4848 B7B1 486E S-----i-  COMR R6          1233
RD a=$486E d=001E CP-1610          (PC = $486E) t=1233
0000 4800 0000 0000 4842 4848 484E 486F ------i-  CLRR R0          1240
RD a=$486F d=01C0 CP-1610          (PC = $486F) t=1240
0000 4800 0000 0000 4842 4848 484E 4870 -Z----i-  NEGR R0          1246
RD a=$4870 d=0020 CP-1610          (PC = $4870) t=1246
0000 4800 0000 0000 4842 4848 484E 4871 -Z-C--i-  MVII #$8000,R0         1252
RD a=$4871 d=02B8 CP-1610          (PC = $4871) t=1252
RD a=$4872 d=8000 CP-1610          (PC = $4871) t=1252
8000 4800 0000 0000 4842 4848 484E 4873 -Z-C--i-  NEGR R0          1260
RD a=$4873 d=0020 CP-1610          (PC = $4873) t=1260
8000 4800 0000 0000 4842 4848 484E 4874 S-O---i-  NEGR R1          1266
RD a=$4874 d=0021 CP-1610          (PC = $4874) t=1266
8000 B800 0000 0000 4842 4848 484E 4875 S-----i-  NEGR R2          1272
RD a=$4875 d=0022 CP-1610          (PC = $4875) t=1272
8000 B800 0000 0000 4842 4848 484E 4876 -Z-C--i-  NEGR R3          1278
RD a=$4876 d=0023 CP-1610          (PC = $4876) t=1278
8000 B800 0000 0000 4842 4848 484E 4877 -Z-C--i-  NEGR R4          1284
RD a=$4877 d=0024 CP-1610          (PC = $4877) t=1284
8000 B800 0000 0000 B7BE 4848 484E 4878 S-----i-  NEGR R5          1290
RD a=$4878 d=0025 CP-1610          (PC = $4878) t=1290
8000 B800 0000 0000 B7BE B7B8 484E 4879 S-----i-  NEGR R6          1296
RD a=$4879 d=0026 CP-1610          (PC = $4879) t=1296
8000 B800 0000 0000 B7BE B7B8 B7B2 487A S-----i-  MVII #$7FFF,R0         1303
RD a=$487A d=02B8 CP-1610          (PC = $487A) t=1303
RD a=$487B d=7FFF CP-1610          (PC = $487A) t=1303
7FFF B800 0000 0000 B7BE B7B8 B7B2 487C S-----i-  SETC           1311
RD a=$487C d=0007 CP-1610          (PC = $487C) t=1311
7FFF B800 0000 0000 B7BE B7B8 B7B2 487D S--C----  ADCR R0          1315
RD a=$487D d=0028 CP-1610          (PC = $487D) t=1315
8000 B800 0000 0000 B7BE B7B8 B7B2 487E S-O---i-  GSWD R1          1321
RD a=$487E d=0031 CP-1610          (PC = $487E) t=1321
8000 A0A0 0000 0000 B7BE B7B8 B7B2 487F S-O-----  CLRR R0          1327
RD a=$487F d=01C0 CP-1610          (PC = $487F) t=1327
0000 A0A0 0000 0000 B7BE B7B8 B7B2 4880 -ZO---i-  SETC           1333
RD a=$4880 d=0007 CP-1610          (PC = $4880) t=1333
0000 A0A0 0000 0000 B7BE B7B8 B7B2 4881 -ZOC----  ADCR R0          1337
RD a=$4881 d=0028 CP-1610          (PC = $4881) t=1337
0001 A0A0 0000 0000 B7BE B7B8 B7B2 4882 ------i-  GSWD R1          1343
RD a=$4882 d=0031 CP-1610          (PC = $4882) t=1343
0001 0000 0000 0000 B7BE B7B8 B7B2 4883 --------  SETC           1349
RD a=$4883 d=0007 CP-1610          (PC = $4883) t=1349
0001 0000 0000 0000 B7BE B7B8 B7B2 4884 ---C----  ADCR R1          1353
RD a=$4884 d=0029 CP-1610          (PC = $4884) t=1353
0001 0001 0000 0000 B7BE B7B8 B7B2 4885 ------i-  SETC           1359
RD a=$4885 d=0007 CP-1610          (PC = $4885) t=1359
0001 0001 0000 0000 B7BE B7B8 B7B2 4886 ---C----  ADCR R2          1363
RD a=$4886 d=002A CP-1610          (PC = $4886) t=1363
0001 0001 0001 0000 B7BE B7B8 B7B2 4887 ------i-  SETC           1369
RD a=$4887 d=0007 CP-1610          (PC = $4887) t=1369
0001 0001 0001 0000 B7BE B7B8 B7B2 4888 ---C----  ADCR R3          1373
RD a=$4888 d=002B CP-1610          (PC = $4888) t=1373
0001 0001 0001 0001 B7BE B7B8 B7B2 4889 ------i-  SETC           1379
RD a=$4889 d=0007 CP-1610          (PC = $4889) t=1379
0001 0001 0001 0001 B7BE B7B8 B7B2 488A ---C----  ADCR R4          1383
RD a=$488A d=002C CP-1610          (PC = $488A) t=1383
0001 0001 0001 0001 B7BF B7B8 B7B2 488B S-----i-  SETC           1389
RD a=$488B d=0007 CP-1610          (PC = $488B) t=1389
0001 0001 0001 0001 B7BF B7B8 B7B2 488C S--C----  ADCR R5          1393
RD a=$488C d=002D CP-1610          (PC = $488C) t=1393
0001 0001 0001 0001 B7BF B7B9 B7B2 488D S-----i-  SETC           1399
RD a=$488D d=0007 CP-1610          (PC = $488D) t=1399
0001 0001 0001 0001 B7BF B7B9 B7B2 488E S--C----  ADCR R6          1403
RD a=$488E d=002E CP-1610          (PC = $488E) t=1403
0001 0001 0001 0001 B7BF B7B9 B7B3 488F S-----i-  SETC           1410
RD a=$488F d=0007 CP-1610          (PC = $488F) t=1410
0001 0001 0001 0001 B7BF B7B9 B7B3 4890 S--C----  ADCR R7          1414
RD a=$4890 d=002F CP-1610          (PC = $4890) t=1414
0001 0001 0001 0001 B7BF B7B9 B7B3 4892 ------i-  CLRC           1421
RD a=$4892 d=0006 CP-1610          (PC = $4892) t=1421
0001 0001 0001 0001 B7BF B7B9 B7B3 4893 --------  ADCR R0          1425
RD a=$4893 d=0028 CP-1610          (PC = $4893) t=1425
0001 0001 0001 0001 B7BF B7B9 B7B3 4894 ------i-  ADCR R1          1431
RD a=$4894 d=0029 CP-1610          (PC = $4894) t=1431
0001 0001 0001 0001 B7BF B7B9 B7B3 4895 ------i-  ADCR R2          1437
RD a=$4895 d=002A CP-1610          (PC = $4895) t=1437
0001 0001 0001 0001 B7BF B7B9 B7B3 4896 ------i-  ADCR R3          1443
RD a=$4896 d=002B CP-1610          (PC = $4896) t=1443
0001 0001 0001 0001 B7BF B7B9 B7B3 4897 ------i-  ADCR R4          1449
RD a=$4897 d=002C CP-1610          (PC = $4897) t=1449
0001 0001 0001 0001 B7BF B7B9 B7B3 4898 S-----i-  ADCR R5          1455
RD a=$4898 d=002D CP-1610          (PC = $4898) t=1455
0001 0001 0001 0001 B7BF B7B9 B7B3 4899 S-----i-  ADCR R6          1461
RD a=$4899 d=002E CP-1610          (PC = $4899) t=1461
0001 0001 0001 0001 B7BF B7B9 B7B3 489A S-----i-  ADCR R7          1468
RD a=$489A d=002F CP-1610          (PC = $489A) t=1468
0001 0001 0001 0001 B7BF B7B9 B7B3 489B ------i-  MVII #$00F0,R0         1475
RD a=$489B d=02B8 CP-1610          (PC = $489B) t=1475
RD a=$489C d=00F0 CP-1610          (PC = $489B) t=1475
00F0 0001 0001 0001 B7BF B7B9 B7B3 489D ------i-  RSWD R0          1483
RD a=$489D d=0038 CP-1610          (PC = $489D) t=1483
00F0 0001 0001 0001 B7BF B7B9 B7B3 489E SZOC----  CLRR R0          1489
RD a=$489E d=01C0 CP-1610          (PC = $489E) t=1489
0000 0001 0001 0001 B7BF B7B9 B7B3 489F -ZOC--i-  RSWD R0          1495
RD a=$489F d=0038 CP-1610          (PC = $489F) t=1495
0000 0001 0001 0001 B7BF B7B9 B7B3 48A0 --------  MVII #$00F0,R1         1501
RD a=$48A0 d=02B9 CP-1610          (PC = $48A0) t=1501
RD a=$48A1 d=00F0 CP-1610          (PC = $48A0) t=1501
0000 00F0 0001 0001 B7BF B7B9 B7B3 48A2 ------i-  RSWD R1          1509
RD a=$48A2 d=0039 CP-1610          (PC = $48A2) t=1509
0000 00F0 0001 0001 B7BF B7B9 B7B3 48A3 SZOC----  CLRR R1          1515
RD a=$48A3 d=01C9 CP-1610          (PC = $48A3) t=1515
0000 0000 0001 0001 B7BF B7B9 B7B3 48A4 -ZOC--i-  RSWD R1          1521
RD a=$48A4 d=0039 CP-1610          (PC = $48A4) t=1521
0000 0000 0001 0001 B7BF B7B9 B7B3 48A5 --------  MVII #$00F0,R2         1527
RD a=$48A5 d=02BA CP-1610          (PC = $48A5) t=1527
RD a=$48A6 d=00F0 CP-1610          (PC = $48A5) t=1527
0000 0000 00F0 0001 B7BF B7B9 B7B3 48A7 ------i-  RSWD R2          1535
RD a=$48A7 d=003A CP-1610          (PC = $48A7) t=1535
0000 0000 00F0 0001 B7BF B7B9 B7B3 48A8 SZOC----  CLRR R2          1541
RD a=$48A8 d=01D2 CP-1610          (PC = $48A8) t=1541
0000 0000 0000 0001 B7BF B7B9 B7B3 48A9 -ZOC--i-  RSWD R2          1547
RD a=$48A9 d=003A CP-1610          (PC = $48A9) t=1547
0000 0000 0000 0001 B7BF B7B9 B7B3 48AA --------  MVII #$00F0,R3         1553
RD a=$48AA d=02BB CP-1610          (PC = $48AA) t=1553
RD a=$48AB d=00F0 CP-1610          (PC = $48AA) t=1553
0000 0000 0000 00F0 B7BF B7B9 B7B3 48AC ------i-  RSWD R3          1561
RD a=$48AC d=003B CP-1610          (PC = $48AC) t=1561
0000 0000 0000 00F0 B7BF B7B9 B7B3 48AD SZOC----  CLRR R3          1567
RD a=$48AD d=01DB CP-1610          (PC = $48AD) t=1567
0000 0000 0000 0000 B7BF B7B9 B7B3 48AE -ZOC--i-  RSWD R3          1573
RD a=$48AE d=003B CP-1610          (PC = $48AE) t=1573
0000 0000 0000 0000 B7BF B7B9 B7B3 48AF --------  MVII #$00F0,R4         1579
RD a=$48AF d=02BC CP-1610          (PC = $48AF) t=1579
RD a=$48B0 d=00F0 CP-1610          (PC = $48AF) t=1579
0000 0000 0000 0000 00F0 B7B9 B7B3 48B1 ------i-  RSWD R4          1587
RD a=$48B1 d=003C CP-1610          (PC = $48B1) t=1587
0000 0000 0000 0000 00F0 B7B9 B7B3 48B2 SZOC----  CLRR R4          1593
RD a=$48B2 d=01E4 CP-1610          (PC = $48B2) t=1593
0000 0000 0000 0000 0000 B7B9 B7B3 48B3 -ZOC--i-  RSWD R4          1599
RD a=$48B3 d=003C CP-1610          (PC = $48B3) t=1599
0000 0000 0000 0000 0000 B7B9 B7B3 48B4 --------  MVII #$00F0,R5         1605
RD a=$48B4 d=02BD CP-1610          (PC = $48B4) t=1605
RD a=$48B5 d=00F0 CP-1610          (PC = $48B4) t=1605
0000 0000 0000 0000 0000 00F0 B7B3 48B6 ------i-  RSWD R5          1613
RD a=$48B6 d=003D CP-1610          (PC = $48B6) t=1613
0000 0000 0000 0000 0000 00F0 B7B3 48B7 SZOC----  CLRR R5          1619
RD a=$48B7 d=01ED CP-1610          (PC = $48B7) t=1619
0000 0000 0000 0000 0000 0000 B7B3 48B8 -ZOC--i-  RSWD R5          1625
RD a=$48B8 d=003D CP-1610          (PC = $48B8) t=1625
0000 0000 0000 0000 0000 0000 B7B3 48B9 --------  MVII #$00F0,R6         1631
RD a=$48B9 d=02BE CP-1610          (PC = $48B9) t=1631
RD a=$48BA d=00F0 CP-1610          (PC = $48B9) t=1631
0000 0000 0000 0000 0000 0000 00F0 48BB ------i-  RSWD R6          1640
RD a=$48BB d=003E CP-1610          (PC = $48BB) t=1640
0000 0000 0000 0000 0000 0000 00F0 48BC SZOC----  CLRR R6          1646
RD a=$48BC d=01F6 CP-1610          (PC = $48BC) t=1646
0000 0000 0000 0000 0000 0000 0000 48BD -ZOC--i-  RSWD R6          1653
RD a=$48BD d=003E CP-1610          (PC = $48BD) t=1653
0000 0000 0000 0000 0000 0000 0000 48BE --------  MVII #$FF00,R0         1659
RD a=$48BE d=02B8 CP-1610          (PC = $48BE) t=1659
RD a=$48BF d=FF00 CP-1610          (PC = $48BE) t=1659
FF00 0000 0000 0000 0000 0000 0000 48C0 ------i-  SWAP R0          1667
RD a=$48C0 d=0040 CP-1610          (PC = $48C0) t=1667
00FF 0000 0000 0000 0000 0000 0000 48C1 S-------  MVII #$00FF,R0         1673
RD a=$48C1 d=02B8 CP-1610          (PC = $48C1) t=1673
RD a=$48C2 d=00FF CP-1610          (PC = $48C1) t=1673
00FF 0000 0000 0000 0000 0000 0000 48C3 S-----i-  SWAP R0,2         1681
RD a=$48C3 d=0044 CP-1610          (PC = $48C3) t=1681
FFFF 0000 0000 0000 0000 0000 0000 48C4 S-------  MVII #$FF00,R0         1689
RD a=$48C4 d=02B8 CP-1610          (PC = $48C4) t=1689
RD a=$48C5 d=FF00 CP-1610          (PC = $48C4) t=1689
FF00 0000 0000 0000 0000 0000 0000 48C6 S-----i-  SWAP R0,2         1697
RD a=$48C6 d=0044 CP-1610          (PC = $48C6) t=1697
0000 0000 0000 0000 0000 0000 0000 48C7 -Z------  MVII #$0001,R0         1705
RD a=$48C7 d=02B8 CP-1610          (PC = $48C7) t=1705
RD a=$48C8 d=0001 CP-1610          (PC = $48C7) t=1705
0001 0000 0000 0000 0000 0000 0000 48C9 -Z----i-  SLL  R0          1713
RD a=$48C9 d=0048 CP-1610          (PC = $48C9) t=1713
0002 0000 0000 0000 0000 0000 0000 48CA --------  SLL  R0,2         1719
RD a=$48CA d=004C CP-1610          (PC = $48CA) t=1719
0008 0000 0000 0000 0000 0000 0000 48CB --------  MVII #$4000,R0         1727
RD a=$48CB d=02B8 CP-1610          (PC = $48CB) t=1727
RD a=$48CC d=4000 CP-1610          (PC = $48CB) t=1727
4000 0000 0000 0000 0000 0000 0000 48CD ------i-  SLL  R0          1735
RD a=$48CD d=0048 CP-1610          (PC = $48CD) t=1735
8000 0000 0000 0000 0000 0000 0000 48CE S-------  SLL  R0          1741
RD a=$48CE d=0048 CP-1610          (PC = $48CE) t=1741
0000 0000 0000 0000 0000 0000 0000 48CF -Z------  MVII #$2000,R0         1747
RD a=$48CF d=02B8 CP-1610          (PC = $48CF) t=1747
RD a=$48D0 d=2000 CP-1610          (PC = $48CF) t=1747
2000 0000 0000 0000 0000 0000 0000 48D1 -Z----i-  SLL  R0,2         1755
RD a=$48D1 d=004C CP-1610          (PC = $48D1) t=1755
8000 0000 0000 0000 0000 0000 0000 48D2 S-------  MVII #$4000,R0         1763
RD a=$48D2 d=02B8 CP-1610          (PC = $48D2) t=1763
RD a=$48D3 d=4000 CP-1610          (PC = $48D2) t=1763
4000 0000 0000 0000 0000 0000 0000 48D4 S-----i-  SLL  R0,2         1771
RD a=$48D4 d=004C CP-1610          (PC = $48D4) t=1771
0000 0000 0000 0000 0000 0000 0000 48D5 -Z------  MVII #$0030,R1         1779
RD a=$48D5 d=02B9 CP-1610          (PC = $48D5) t=1779
RD a=$48D6 d=0030 CP-1610          (PC = $48D5) t=1779
0000 0030 0000 0000 0000 0000 0000 48D7 -Z----i-  RSWD R1          1787
RD a=$48D7 d=0039 CP-1610          (PC = $48D7) t=1787
0000 0030 0000 0000 0000 0000 0000 48D8 --OC----  MVII #$0001,R0         1793
RD a=$48D8 d=02B8 CP-1610          (PC = $48D8) t=1793
RD a=$48D9 d=0001 CP-1610          (PC = $48D8) t=1793
0001 0030 0000 0000 0000 0000 0000 48DA --OC--i-  SLL  R0          1801
RD a=$48DA d=0048 CP-1610          (PC = $48DA) t=1801
0002 0030 0000 0000 0000 0000 0000 48DB --OC----  SLL  R0,2         1807
RD a=$48DB d=004C CP-1610          (PC = $48DB) t=1807
0008 0030 0000 0000 0000 0000 0000 48DC --OC----  MVII #$0001,R0         1815
RD a=$48DC d=02B8 CP-1610          (PC = $48DC) t=1815
RD a=$48DD d=0001 CP-1610          (PC = $48DC) t=1815
0001 0030 0000 0000 0000 0000 0000 48DE --OC--i-  CLRC           1823
RD a=$48DE d=0006 CP-1610          (PC = $48DE) t=1823
0001 0030 0000 0000 0000 0000 0000 48DF --O-----  RLC  R0          1827
RD a=$48DF d=0050 CP-1610          (PC = $48DF) t=1827
0002 0030 0000 0000 0000 0000 0000 48E0 --O-----  CLRR R1          1833
RD a=$48E0 d=01C9 CP-1610          (PC = $48E0) t=1833
0002 0000 0000 0000 0000 0000 0000 48E1 -ZO---i-  RSWD R1          1839
RD a=$48E1 d=0039 CP-1610          (PC = $48E1) t=1839
0002 0000 0000 0000 0000 0000 0000 48E2 --------  RLC  R0,2         1845
RD a=$48E2 d=0054 CP-1610          (PC = $48E2) t=1845
0008 0000 0000 0000 0000 0000 0000 48E3 --------  MVII #$0001,R0         1853
RD a=$48E3 d=02B8 CP-1610          (PC = $48E3) t=1853
RD a=$48E4 d=0001 CP-1610          (PC = $48E3) t=1853
0001 0000 0000 0000 0000 0000 0000 48E5 ------i-  SETC           1861
RD a=$48E5 d=0007 CP-1610          (PC = $48E5) t=1861
0001 0000 0000 0000 0000 0000 0000 48E6 ---C----  RLC  R0          1865
RD a=$48E6 d=0050 CP-1610          (PC = $48E6) t=1865
0003 0000 0000 0000 0000 0000 0000 48E7 --------  MVII #$0030,R1         1871
RD a=$48E7 d=02B9 CP-1610          (PC = $48E7) t=1871
RD a=$48E8 d=0030 CP-1610          (PC = $48E7) t=1871
0003 0030 0000 0000 0000 0000 0000 48E9 ------i-  RSWD R1          1879
RD a=$48E9 d=0039 CP-1610          (PC = $48E9) t=1879
0003 0030 0000 0000 0000 0000 0000 48EA --OC----  RLC  R0,2         1885
RD a=$48EA d=0054 CP-1610          (PC = $48EA) t=1885
000F 0030 0000 0000 0000 0000 0000 48EB --------  MVII #$4000,R0         1893
RD a=$48EB d=02B8 CP-1610          (PC = $48EB) t=1893
RD a=$48EC d=4000 CP-1610          (PC = $48EB) t=1893
4000 0030 0000 0000 0000 0000 0000 48ED ------i-  CLRC           1901
RD a=$48ED d=0006 CP-1610          (PC = $48ED) t=1901
4000 0030 0000 0000 0000 0000 0000 48EE --------  RLC  R0          1905
RD a=$48EE d=0050 CP-1610          (PC = $48EE) t=1905
8000 0030 0000 0000 0000 0000 0000 48EF S-------  CLRC           1911
RD a=$48EF d=0006 CP-1610          (PC = $48EF) t=1911
8000 0030 0000 0000 0000 0000 0000 48F0 S-------  RLC  R0          1915
RD a=$48F0 d=0050 CP-1610          (PC = $48F0) t=1915
0000 0030 0000 0000 0000 0000 0000 48F1 -Z-C----  MVII #$4000,R0         1921
RD a=$48F1 d=02B8 CP-1610          (PC = $48F1) t=1921
RD a=$48F2 d=4000 CP-1610          (PC = $48F1) t=1921
4000 0030 0000 0000 0000 0000 0000 48F3 -Z-C--i-  SETC           1929
RD a=$48F3 d=0007 CP-1610          (PC = $48F3) t=1929
4000 0030 0000 0000 0000 0000 0000 48F4 -Z-C----  RLC  R0          1933
RD a=$48F4 d=0050 CP-1610          (PC = $48F4) t=1933
8001 0030 0000 0000 0000 0000 0000 48F5 S-------  SETC           1939
RD a=$48F5 d=0007 CP-1610          (PC = $48F5) t=1939
8001 0030 0000 0000 0000 0000 0000 48F6 S--C----  RLC  R0          1943
RD a=$48F6 d=0050 CP-1610          (PC = $48F6) t=1943
0003 0030 0000 0000 0000 0000 0000 48F7 ---C----  MVII #$2000,R0         1949
RD a=$48F7 d=02B8 CP-1610          (PC = $48F7) t=1949
RD a=$48F8 d=2000 CP-1610          (PC = $48F7) t=1949
2000 0030 0000 0000 0000 0000 0000 48F9 ---C--i-  CLRR R1          1957
RD a=$48F9 d=01C9 CP-1610          (PC = $48F9) t=1957
2000 0000 0000 0000 0000 0000 0000 48FA -Z-C--i-  RSWD R1          1963
RD a=$48FA d=0039 CP-1610          (PC = $48FA) t=1963
2000 0000 0000 0000 0000 0000 0000 48FB --------  RLC  R0,2         1969
RD a=$48FB d=0054 CP-1610          (PC = $48FB) t=1969
8000 0000 0000 0000 0000 0000 0000 48FC S-------  MVII #$4000,R0         1977
RD a=$48FC d=02B8 CP-1610          (PC = $48FC) t=1977
RD a=$48FD d=4000 CP-1610          (PC = $48FC) t=1977
4000 0000 0000 0000 0000 0000 0000 48FE S-----i-  CLRR R1          1985
RD a=$48FE d=01C9 CP-1610          (PC = $48FE) t=1985
4000 0000 0000 0000 0000 0000 0000 48FF -Z----i-  RSWD R1          1991
RD a=$48FF d=0039 CP-1610          (PC = $48FF) t=1991
4000 0000 0000 0000 0000 0000 0000 4900 --------  RLC  R0,2         1997
RD a=$4900 d=0054 CP-1610          (PC = $4900) t=1997
0000 0000 0000 0000 0000 0000 0000 4901 -ZO-----  MVII #$2000,R0         2005
RD a=$4901 d=02B8 CP-1610          (PC = $4901) t=2005
RD a=$4902 d=2000 CP-1610          (PC = $4901) t=2005
2000 0000 0000 0000 0000 0000 0000 4903 -ZO---i-  MVII #$0030,R1         2013
RD a=$4903 d=02B9 CP-1610          (PC = $4903) t=2013
RD a=$4904 d=0030 CP-1610          (PC = $4903) t=2013
2000 0030 0000 0000 0000 0000 0000 4905 -ZO---i-  RSWD R1          2021
RD a=$4905 d=0039 CP-1610          (PC = $4905) t=2021
2000 0030 0000 0000 0000 0000 0000 4906 --OC----  RLC  R0,2         2027
RD a=$4906 d=0054 CP-1610          (PC = $4906) t=2027
8003 0030 0000 0000 0000 0000 0000 4907 S-------  MVII #$4000,R0         2035
RD a=$4907 d=02B8 CP-1610          (PC = $4907) t=2035
RD a=$4908 d=4000 CP-1610          (PC = $4907) t=2035
4000 0030 0000 0000 0000 0000 0000 4909 S-----i-  MVII #$0030,R1         2043
RD a=$4909 d=02B9 CP-1610          (PC = $4909) t=2043
RD a=$490A d=0030 CP-1610          (PC = $4909) t=2043
4000 0030 0000 0000 0000 0000 0000 490B S-----i-  RSWD R1          2051
RD a=$490B d=0039 CP-1610          (PC = $490B) t=2051
4000 0030 0000 0000 0000 0000 0000 490C --OC----  RLC  R0,2         2057
RD a=$490C d=0054 CP-1610          (PC = $490C) t=2057
0003 0030 0000 0000 0000 0000 0000 490D --O-----  CLRR R1          2065
RD a=$490D d=01C9 CP-1610          (PC = $490D) t=2065
0003 0000 0000 0000 0000 0000 0000 490E -ZO---i-  RSWD R1          2071
RD a=$490E d=0039 CP-1610          (PC = $490E) t=2071
0003 0000 0000 0000 0000 0000 0000 490F --------  MVII #$0001,R0         2077
RD a=$490F d=02B8 CP-1610          (PC = $490F) t=2077
RD a=$4910 d=0001 CP-1610          (PC = $490F) t=2077
0001 0000 0000 0000 0000 0000 0000 4911 ------i-  SLLC R0          2085
RD a=$4911 d=0058 CP-1610          (PC = $4911) t=2085
0002 0000 0000 0000 0000 0000 0000 4912 --------  SLLC R0,2         2091
RD a=$4912 d=005C CP-1610          (PC = $4912) t=2091
0008 0000 0000 0000 0000 0000 0000 4913 --------  MVII #$4000,R0         2099
RD a=$4913 d=02B8 CP-1610          (PC = $4913) t=2099
RD a=$4914 d=4000 CP-1610          (PC = $4913) t=2099
4000 0000 0000 0000 0000 0000 0000 4915 ------i-  SLLC R0          2107
RD a=$4915 d=0058 CP-1610          (PC = $4915) t=2107
8000 0000 0000 0000 0000 0000 0000 4916 S-------  MVII #$8000,R0         2113
RD a=$4916 d=02B8 CP-1610          (PC = $4916) t=2113
RD a=$4917 d=8000 CP-1610          (PC = $4916) t=2113
8000 0000 0000 0000 0000 0000 0000 4918 S-----i-  SLLC R0          2121
RD a=$4918 d=0058 CP-1610          (PC = $4918) t=2121
0000 0000 0000 0000 0000 0000 0000 4919 -Z-C----  MVII #$C000,R0         2127
RD a=$4919 d=02B8 CP-1610          (PC = $4919) t=2127
RD a=$491A d=C000 CP-1610          (PC = $4919) t=2127
C000 0000 0000 0000 0000 0000 0000 491B -Z-C--i-  SLLC R0,2         2135
RD a=$491B d=005C CP-1610          (PC = $491B) t=2135
0000 0000 0000 0000 0000 0000 0000 491C -ZOC----  MVII #$0030,R1         2143
RD a=$491C d=02B9 CP-1610          (PC = $491C) t=2143
RD a=$491D d=0030 CP-1610          (PC = $491C) t=2143
0000 0030 0000 0000 0000 0000 0000 491E -ZOC--i-  RSWD R1          2151
RD a=$491E d=0039 CP-1610          (PC = $491E) t=2151
0000 0030 0000 0000 0000 0000 0000 491F --OC----  MVII #$0001,R0         2157
RD a=$491F d=02B8 CP-1610          (PC = $491F) t=2157
RD a=$4920 d=0001 CP-1610          (PC = $491F) t=2157
0001 0030 0000 0000 0000 0000 0000 4921 --OC--i-  SLR  R0          2165
RD a=$4921 d=0060 CP-1610          (PC = $4921) t=2165
0000 0030 0000 0000 0000 0000 0000 4922 -ZOC----  MVII #$0030,R1         2171
RD a=$4922 d=02B9 CP-1610          (PC = $4922) t=2171
RD a=$4923 d=0030 CP-1610          (PC = $4922) t=2171
0000 0030 0000 0000 0000 0000 0000 4924 -ZOC--i-  RSWD R1          2179
RD a=$4924 d=0039 CP-1610          (PC = $4924) t=2179
0000 0030 0000 0000 0000 0000 0000 4925 --OC----  MVII #$0100,R0         2185
RD a=$4925 d=02B8 CP-1610          (PC = $4925) t=2185
RD a=$4926 d=0100 CP-1610          (PC = $4925) t=2185
0100 0030 0000 0000 0000 0000 0000 4927 --OC--i-  SLR  R0          2193
RD a=$4927 d=0060 CP-1610          (PC = $4927) t=2193
0080 0030 0000 0000 0000 0000 0000 4928 S-OC----  MVII #$0030,R1         2199
RD a=$4928 d=02B9 CP-1610          (PC = $4928) t=2199
RD a=$4929 d=0030 CP-1610          (PC = $4928) t=2199
0080 0030 0000 0000 0000 0000 0000 492A S-OC--i-  RSWD R1          2207
RD a=$492A d=0039 CP-1610          (PC = $492A) t=2207
0080 0030 0000 0000 0000 0000 0000 492B --OC----  MVII #$0200,R0         2213
RD a=$492B d=02B8 CP-1610          (PC = $492B) t=2213
RD a=$492C d=0200 CP-1610          (PC = $492B) t=2213
0200 0030 0000 0000 0000 0000 0000 492D --OC--i-  SLR  R0,2         2221
RD a=$492D d=0064 CP-1610          (PC = $492D) t=2221
0080 0030 0000 0000 0000 0000 0000 492E S-OC----  MVII #$0030,R1         2229
RD a=$492E d=02B9 CP-1610          (PC = $492E) t=2229
RD a=$492F d=0030 CP-1610          (PC = $492E) t=2229
0080 0030 0000 0000 0000 0000 0000 4930 S-OC--i-  RSWD R1          2237
RD a=$4930 d=0039 CP-1610          (PC = $4930) t=2237
0080 0030 0000 0000 0000 0000 0000 4931 --OC----  MVII #$8000,R0         2243
RD a=$4931 d=02B8 CP-1610          (PC = $4931) t=2243
RD a=$4932 d=8000 CP-1610          (PC = $4931) t=2243
8000 0030 0000 0000 0000 0000 0000 4933 --OC--i-  SAR  R0          2251
RD a=$4933 d=0068 CP-1610          (PC = $4933) t=2251
C000 0030 0000 0000 0000 0000 0000 4934 --OC----  MVII #$0030,R1         2257
RD a=$4934 d=02B9 CP-1610          (PC = $4934) t=2257
RD a=$4935 d=0030 CP-1610          (PC = $4934) t=2257
C000 0030 0000 0000 0000 0000 0000 4936 --OC--i-  RSWD R1          2265
RD a=$4936 d=0039 CP-1610          (PC = $4936) t=2265
C000 0030 0000 0000 0000 0000 0000 4937 --OC----  MVII #$8000,R0         2271
RD a=$4937 d=02B8 CP-1610          (PC = $4937) t=2271
RD a=$4938 d=8000 CP-1610          (PC = $4937) t=2271
8000 0030 0000 0000 0000 0000 0000 4939 --OC--i-  SAR  R0,2         2279
RD a=$4939 d=006C CP-1610          (PC = $4939) t=2279
E000 0030 0000 0000 0000 0000 0000 493A --OC----  MVII #$0030,R1         2287
RD a=$493A d=02B9 CP-1610          (PC = $493A) t=2287
RD a=$493B d=0030 CP-1610          (PC = $493A) t=2287
E000 0030 0000 0000 0000 0000 0000 493C --OC--i-  RSWD R1          2295
RD a=$493C d=0039 CP-1610          (PC = $493C) t=2295
E000 0030 0000 0000 0000 0000 0000 493D --OC----  MVII #$0100,R0         2301
RD a=$493D d=02B8 CP-1610          (PC = $493D) t=2301
RD a=$493E d=0100 CP-1610          (PC = $493D) t=2301
0100 0030 0000 0000 0000 0000 0000 493F --OC--i-  SAR  R0          2309
RD a=$493F d=0068 CP-1610          (PC = $493F) t=2309
0080 0030 0000 0000 0000 0000 0000 4940 S-OC----  MVII #$0030,R1         2315
RD a=$4940 d=02B9 CP-1610          (PC = $4940) t=2315
RD a=$4941 d=0030 CP-1610          (PC = $4940) t=2315
0080 0030 0000 0000 0000 0000 0000 4942 S-OC--i-  RSWD R1          2323
RD a=$4942 d=0039 CP-1610          (PC = $4942) t=2323
0080 0030 0000 0000 0000 0000 0000 4943 --OC----  MVII #$0200,R0         2329
RD a=$4943 d=02B8 CP-1610          (PC = $4943) t=2329
RD a=$4944 d=0200 CP-1610          (PC = $4943) t=2329
0200 0030 0000 0000 0000 0000 0000 4945 --OC--i-  SAR  R0,2         2337
RD a=$4945 d=006C CP-1610          (PC = $4945) t=2337
0080 0030 0000 0000 0000 0000 0000 4946 S-OC----  CLRR R1          2345
RD a=$4946 d=01C9 CP-1610          (PC = $4946) t=2345
0080 0000 0000 0000 0000 0000 0000 4947 -ZOC--i-  RSWD R1          2351
RD a=$4947 d=0039 CP-1610          (PC = $4947) t=2351
0080 0000 0000 0000 0000 0000 0000 4948 --------  CLRR R0          2357
RD a=$4948 d=01C0 CP-1610          (PC = $4948) t=2357
0000 0000 0000 0000 0000 0000 0000 4949 -Z----i-  RRC  R0          2363
RD a=$4949 d=0070 CP-1610          (PC = $4949) t=2363
0000 0000 0000 0000 0000 0000 0000 494A -Z------  CLRR R1          2369
RD a=$494A d=01C9 CP-1610          (PC = $494A) t=2369
0000 0000 0000 0000 0000 0000 0000 494B -Z----i-  RSWD R1          2375
RD a=$494B d=0039 CP-1610          (PC = $494B) t=2375
0000 0000 0000 0000 0000 0000 0000 494C --------  CLRR R0          2381
RD a=$494C d=01C0 CP-1610          (PC = $494C) t=2381
0000 0000 0000 0000 0000 0000 0000 494D -Z----i-  RRC  R0,2         2387
RD a=$494D d=0074 CP-1610          (PC = $494D) t=2387
0000 0000 0000 0000 0000 0000 0000 494E -Z------  MVII #$0010,R1         2395
RD a=$494E d=02B9 CP-1610          (PC = $494E) t=2395
RD a=$494F d=0010 CP-1610          (PC = $494E) t=2395
0000 0010 0000 0000 0000 0000 0000 4950 -Z----i-  RSWD R1          2403
RD a=$4950 d=0039 CP-1610          (PC = $4950) t=2403
0000 0010 0000 0000 0000 0000 0000 4951 ---C----  CLRR R0          2409
RD a=$4951 d=01C0 CP-1610          (PC = $4951) t=2409
0000 0010 0000 0000 0000 0000 0000 4952 -Z-C--i-  RRC  R0          2415
RD a=$4952 d=0070 CP-1610          (PC = $4952) t=2415
8000 0010 0000 0000 0000 0000 0000 4953 --------  MVII #$0010,R1         2421
RD a=$4953 d=02B9 CP-1610          (PC = $4953) t=2421
RD a=$4954 d=0010 CP-1610          (PC = $4953) t=2421
8000 0010 0000 0000 0000 0000 0000 4955 ------i-  RSWD R1          2429
RD a=$4955 d=0039 CP-1610          (PC = $4955) t=2429
8000 0010 0000 0000 0000 0000 0000 4956 ---C----  CLRR R0          2435
RD a=$4956 d=01C0 CP-1610          (PC = $4956) t=2435
0000 0010 0000 0000 0000 0000 0000 4957 -Z-C--i-  RRC  R0,2         2441
RD a=$4957 d=0074 CP-1610          (PC = $4957) t=2441
4000 0010 0000 0000 0000 0000 0000 4958 --------  MVII #$0020,R1         2449
RD a=$4958 d=02B9 CP-1610          (PC = $4958) t=2449
RD a=$4959 d=0020 CP-1610          (PC = $4958) t=2449
4000 0020 0000 0000 0000 0000 0000 495A ------i-  RSWD R1          2457
RD a=$495A d=0039 CP-1610          (PC = $495A) t=2457
4000 0020 0000 0000 0000 0000 0000 495B --O-----  CLRR R0          2463
RD a=$495B d=01C0 CP-1610          (PC = $495B) t=2463
0000 0020 0000 0000 0000 0000 0000 495C -ZO---i-  RRC  R0          2469
RD a=$495C d=0070 CP-1610          (PC = $495C) t=2469
0000 0020 0000 0000 0000 0000 0000 495D -ZO-----  MVII #$0020,R1         2475
RD a=$495D d=02B9 CP-1610          (PC = $495D) t=2475
RD a=$495E d=0020 CP-1610          (PC = $495D) t=2475
0000 0020 0000 0000 0000 0000 0000 495F -ZO---i-  RSWD R1          2483
RD a=$495F d=0039 CP-1610          (PC = $495F) t=2483
0000 0020 0000 0000 0000 0000 0000 4960 --O-----  CLRR R0          2489
RD a=$4960 d=01C0 CP-1610          (PC = $4960) t=2489
0000 0020 0000 0000 0000 0000 0000 4961 -ZO---i-  RRC  R0,2         2495
RD a=$4961 d=0074 CP-1610          (PC = $4961) t=2495
8000 0020 0000 0000 0000 0000 0000 4962 --------  MVII #$0030,R1         2503
RD a=$4962 d=02B9 CP-1610          (PC = $4962) t=2503
RD a=$4963 d=0030 CP-1610          (PC = $4962) t=2503
8000 0030 0000 0000 0000 0000 0000 4964 ------i-  RSWD R1          2511
RD a=$4964 d=0039 CP-1610          (PC = $4964) t=2511
8000 0030 0000 0000 0000 0000 0000 4965 --OC----  CLRR R0          2517
RD a=$4965 d=01C0 CP-1610          (PC = $4965) t=2517
0000 0030 0000 0000 0000 0000 0000 4966 -ZOC--i-  RRC  R0          2523
RD a=$4966 d=0070 CP-1610          (PC = $4966) t=2523
8000 0030 0000 0000 0000 0000 0000 4967 --O-----  MVII #$0030,R1         2529
RD a=$4967 d=02B9 CP-1610          (PC = $4967) t=2529
RD a=$4968 d=0030 CP-1610          (PC = $4967) t=2529
8000 0030 0000 0000 0000 0000 0000 4969 --O---i-  RSWD R1          2537
RD a=$4969 d=0039 CP-1610          (PC = $4969) t=2537
8000 0030 0000 0000 0000 0000 0000 496A --OC----  CLRR R0          2543
RD a=$496A d=01C0 CP-1610          (PC = $496A) t=2543
0000 0030 0000 0000 0000 0000 0000 496B -ZOC--i-  RRC  R0,2         2549
RD a=$496B d=0074 CP-1610          (PC = $496B) t=2549
C000 0030 0000 0000 0000 0000 0000 496C --------  CLRR R1          2557
RD a=$496C d=01C9 CP-1610          (PC = $496C) t=2557
C000 0000 0000 0000 0000 0000 0000 496D -Z----i-  RSWD R1          2563
RD a=$496D d=0039 CP-1610          (PC = $496D) t=2563
C000 0000 0000 0000 0000 0000 0000 496E --------  MVII #$0100,R0         2569
RD a=$496E d=02B8 CP-1610          (PC = $496E) t=2569
RD a=$496F d=0100 CP-1610          (PC = $496E) t=2569
0100 0000 0000 0000 0000 0000 0000 4970 ------i-  RRC  R0          2577
RD a=$4970 d=0070 CP-1610          (PC = $4970) t=2577
0080 0000 0000 0000 0000 0000 0000 4971 S-------  CLRR R1          2583
RD a=$4971 d=01C9 CP-1610          (PC = $4971) t=2583
0080 0000 0000 0000 0000 0000 0000 4972 -Z----i-  RSWD R1          2589
RD a=$4972 d=0039 CP-1610          (PC = $4972) t=2589
0080 0000 0000 0000 0000 0000 0000 4973 --------  MVII #$0200,R0         2595
RD a=$4973 d=02B8 CP-1610          (PC = $4973) t=2595
RD a=$4974 d=0200 CP-1610          (PC = $4973) t=2595
0200 0000 0000 0000 0000 0000 0000 4975 ------i-  RRC  R0,2         2603
RD a=$4975 d=0074 CP-1610          (PC = $4975) t=2603
0080 0000 0000 0000 0000 0000 0000 4976 S-------  MVII #$0030,R1         2611
RD a=$4976 d=02B9 CP-1610          (PC = $4976) t=2611
RD a=$4977 d=0030 CP-1610          (PC = $4976) t=2611
0080 0030 0000 0000 0000 0000 0000 4978 S-----i-  RSWD R1          2619
RD a=$4978 d=0039 CP-1610          (PC = $4978) t=2619
0080 0030 0000 0000 0000 0000 0000 4979 --OC----  MVII #$8000,R0         2625
RD a=$4979 d=02B8 CP-1610          (PC = $4979) t=2625
RD a=$497A d=8000 CP-1610          (PC = $4979) t=2625
8000 0030 0000 0000 0000 0000 0000 497B --OC--i-  SARC R0          2633
RD a=$497B d=0078 CP-1610          (PC = $497B) t=2633
C000 0030 0000 0000 0000 0000 0000 497C --O-----  MVII #$0030,R1         2639
RD a=$497C d=02B9 CP-1610          (PC = $497C) t=2639
RD a=$497D d=0030 CP-1610          (PC = $497C) t=2639
C000 0030 0000 0000 0000 0000 0000 497E --O---i-  RSWD R1          2647
RD a=$497E d=0039 CP-1610          (PC = $497E) t=2647
C000 0030 0000 0000 0000 0000 0000 497F --OC----  MVII #$8000,R0         2653
RD a=$497F d=02B8 CP-1610          (PC = $497F) t=2653
RD a=$4980 d=8000 CP-1610          (PC = $497F) t=2653
8000 0030 0000 0000 0000 0000 0000 4981 --OC--i-  SARC R0,2         2661
RD a=$4981 d=007C CP-1610          (PC = $4981) t=2661
E000 0030 0000 0000 0000 0000 0000 4982 --------  CLRR R1          2669
RD a=$4982 d=01C9 CP-1610          (PC = $4982) t=2669
E000 0000 0000 0000 0000 0000 0000 4983 -Z----i-  RSWD R1          2675
RD a=$4983 d=0039 CP-1610          (PC = $4983) t=2675
E000 0000 0000 0000 0000 0000 0000 4984 --------  MVII #$8001,R0         2681
RD a=$4984 d=02B8 CP-1610          (PC = $4984) t=2681
RD a=$4985 d=8001 CP-1610          (PC = $4984) t=2681
8001 0000 0000 0000 0000 0000 0000 4986 ------i-  SARC R0          2689
RD a=$4986 d=0078 CP-1610          (PC = $4986) t=2689
C000 0000 0000 0000 0000 0000 0000 4987 ---C----  CLRR R1          2695
RD a=$4987 d=01C9 CP-1610          (PC = $4987) t=2695
C000 0000 0000 0000 0000 0000 0000 4988 -Z-C--i-  RSWD R1          2701
RD a=$4988 d=0039 CP-1610          (PC = $4988) t=2701
C000 0000 0000 0000 0000 0000 0000 4989 --------  MVII #$8003,R0         2707
RD a=$4989 d=02B8 CP-1610          (PC = $4989) t=2707
RD a=$498A d=8003 CP-1610          (PC = $4989) t=2707
8003 0000 0000 0000 0000 0000 0000 498B ------i-  SARC R0,2         2715
RD a=$498B d=007C CP-1610          (PC = $498B) t=2715
E000 0000 0000 0000 0000 0000 0000 498C --OC----  CLRR R0          2723
RD a=$498C d=01C0 CP-1610          (PC = $498C) t=2723
0000 0000 0000 0000 0000 0000 0000 498D -ZOC--i-  MVII #$4242,R1         2729
RD a=$498D d=02B9 CP-1610          (PC = $498D) t=2729
RD a=$498E d=4242 CP-1610          (PC = $498D) t=2729
0000 4242 0000 0000 0000 0000 0000 498F -ZOC--i-  MOVR R0,R1         2737
RD a=$498F d=0081 CP-1610          (PC = $498F) t=2737
0000 0000 0000 0000 0000 0000 0000 4990 -ZOC--i-  MVII #$8000,R0         2743
RD a=$4990 d=02B8 CP-1610          (PC = $4990) t=2743
RD a=$4991 d=8000 CP-1610          (PC = $4990) t=2743
8000 0000 0000 0000 0000 0000 0000 4992 -ZOC--i-  MVII #$4242,R1         2751
RD a=$4992 d=02B9 CP-1610          (PC = $4992) t=2751
RD a=$4993 d=4242 CP-1610          (PC = $4992) t=2751
8000 4242 0000 0000 0000 0000 0000 4994 -ZOC--i-  MOVR R0,R1         2759
RD a=$4994 d=0081 CP-1610          (PC = $4994) t=2759
8000 8000 0000 0000 0000 0000 0000 4995 S-OC--i-  MVII #$4999,R0         2765
RD a=$4995 d=02B8 CP-1610          (PC = $4995) t=2765
RD a=$4996 d=4999 CP-1610          (PC = $4995) t=2765
4999 8000 0000 0000 0000 0000 0000 4997 S-OC--i-  JR   R0          2773
RD a=$4997 d=0087 CP-1610          (PC = $4997) t=2773
4999 8000 0000 0000 0000 0000 0000 4999 --OC--i-  CLRR R0          2780
RD a=$4999 d=01C0 CP-1610          (PC = $4999) t=2780
0000 8000 0000 0000 0000 0000 0000 499A -ZOC--i-  RSWD R0          2786
RD a=$499A d=0038 CP-1610          (PC = $499A) t=2786
0000 8000 0000 0000 0000 0000 0000 499B -------q  CLRR R0          2792
RD a=$499B d=01C0 CP-1610          (PC = $499B) t=2792
0000 8000 0000 0000 0000 0000 0000 499C -Z----iq  CLRR R1          2798
RD a=$499C d=01C9 CP-1610          (PC = $499C) t=2798
0000 0000 0000 0000 0000 0000 0000 499D -Z----iq  ADDR R0,R1         2804
RD a=$499D d=00C1 CP-1610          (PC = $499D) t=2804
0000 0000 0000 0000 0000 0000 0000 499E -Z----iq  CLRR R0          2810
RD a=$499E d=01C0 CP-1610          (PC = $499E) t=2810
0000 0000 0000 0000 0000 0000 0000 499F -Z----iq  RSWD R0          2816
RD a=$499F d=0038 CP-1610          (PC = $499F) t=2816
0000 0000 0000 0000 0000 0000 0000 49A0 -------q  MVII #$7FFF,R0         2822
RD a=$49A0 d=02B8 CP-1610          (PC = $49A0) t=2822
RD a=$49A1 d=7FFF CP-1610          (PC = $49A0) t=2822
7FFF 0000 0000 0000 0000 0000 0000 49A2 ------iq  MVII #$0001,R1         2830
RD a=$49A2 d=02B9 CP-1610          (PC = $49A2) t=2830
RD a=$49A3 d=0001 CP-1610          (PC = $49A2) t=2830
7FFF 0001 0000 0000 0000 0000 0000 49A4 ------iq  ADDR R0,R1         2838
RD a=$49A4 d=00C1 CP-1610          (PC = $49A4) t=2838
7FFF 8000 0000 0000 0000 0000 0000 49A5 S-O---iq  CLRR R0          2844
RD a=$49A5 d=01C0 CP-1610          (PC = $49A5) t=2844
0000 8000 0000 0000 0000 0000 0000 49A6 -ZO---iq  RSWD R0          2850
RD a=$49A6 d=0038 CP-1610          (PC = $49A6) t=2850
0000 8000 0000 0000 0000 0000 0000 49A7 -------q  MVII #$FFFF,R0         2856
RD a=$49A7 d=02B8 CP-1610          (PC = $49A7) t=2856
RD a=$49A8 d=FFFF CP-1610          (PC = $49A7) t=2856
FFFF 8000 0000 0000 0000 0000 0000 49A9 ------iq  MVII #$0001,R1         2864
RD a=$49A9 d=02B9 CP-1610          (PC = $49A9) t=2864
RD a=$49AA d=0001 CP-1610          (PC = $49A9) t=2864
FFFF 0001 0000 0000 0000 0000 0000 49AB ------iq  ADDR R0,R1         2872
RD a=$49AB d=00C1 CP-1610          (PC = $49AB) t=2872
FFFF 0000 0000 0000 0000 0000 0000 49AC -Z-C--iq  CLRR R0          2878
RD a=$49AC d=01C0 CP-1610          (PC = $49AC) t=2878
0000 0000 0000 0000 0000 0000 0000 49AD -Z-C--iq  RSWD R0          2884
RD a=$49AD d=0038 CP-1610          (PC = $49AD) t=2884
0000 0000 0000 0000 0000 0000 0000 49AE -------q  CLRR R0          2890
RD a=$49AE d=01C0 CP-1610          (PC = $49AE) t=2890
0000 0000 0000 0000 0000 0000 0000 49AF -Z----iq  CLRR R1          2896
RD a=$49AF d=01C9 CP-1610          (PC = $49AF) t=2896
0000 0000 0000 0000 0000 0000 0000 49B0 -Z----iq  SUBR R0,R1         2902
RD a=$49B0 d=0101 CP-1610          (PC = $49B0) t=2902
0000 0000 0000 0000 0000 0000 0000 49B1 -Z-C--iq  CLRR R0          2908
RD a=$49B1 d=01C0 CP-1610          (PC = $49B1) t=2908
0000 0000 0000 0000 0000 0000 0000 49B2 -Z-C--iq  RSWD R0          2914
RD a=$49B2 d=0038 CP-1610          (PC = $49B2) t=2914
0000 0000 0000 0000 0000 0000 0000 49B3 -------q  MVII #$0002,R0         2920
RD a=$49B3 d=02B8 CP-1610          (PC = $49B3) t=2920
RD a=$49B4 d=0002 CP-1610          (PC = $49B3) t=2920
0002 0000 0000 0000 0000 0000 0000 49B5 ------iq  MVII #$0044,R1         2928
RD a=$49B5 d=02B9 CP-1610          (PC = $49B5) t=2928
RD a=$49B6 d=0044 CP-1610          (PC = $49B5) t=2928
0002 0044 0000 0000 0000 0000 0000 49B7 ------iq  SUBR R0,R1         2936
RD a=$49B7 d=0101 CP-1610          (PC = $49B7) t=2936
0002 0042 0000 0000 0000 0000 0000 49B8 ---C--iq  CLRR R0          2942
RD a=$49B8 d=01C0 CP-1610          (PC = $49B8) t=2942
0000 0042 0000 0000 0000 0000 0000 49B9 -Z-C--iq  RSWD R0          2948
RD a=$49B9 d=0038 CP-1610          (PC = $49B9) t=2948
0000 0042 0000 0000 0000 0000 0000 49BA -------q  MVII #$0044,R0         2954
RD a=$49BA d=02B8 CP-1610          (PC = $49BA) t=2954
RD a=$49BB d=0044 CP-1610          (PC = $49BA) t=2954
0044 0042 0000 0000 0000 0000 0000 49BC ------iq  MVII #$0002,R1         2962
RD a=$49BC d=02B9 CP-1610          (PC = $49BC) t=2962
RD a=$49BD d=0002 CP-1610          (PC = $49BC) t=2962
0044 0002 0000 0000 0000 0000 0000 49BE ------iq  SUBR R0,R1         2970
RD a=$49BE d=0101 CP-1610          (PC = $49BE) t=2970
0044 FFBE 0000 0000 0000 0000 0000 49BF S-----iq  CLRR R0          2976
RD a=$49BF d=01C0 CP-1610          (PC = $49BF) t=2976
0000 FFBE 0000 0000 0000 0000 0000 49C0 -Z----iq  RSWD R0          2982
RD a=$49C0 d=0038 CP-1610          (PC = $49C0) t=2982
0000 FFBE 0000 0000 0000 0000 0000 49C1 -------q  MVII #$0002,R0         2988
RD a=$49C1 d=02B8 CP-1610          (PC = $49C1) t=2988
RD a=$49C2 d=0002 CP-1610          (PC = $49C1) t=2988
0002 FFBE 0000 0000 0000 0000 0000 49C3 ------iq  MVII #$0002,R1         2996
RD a=$49C3 d=02B9 CP-1610          (PC = $49C3) t=2996
RD a=$49C4 d=0002 CP-1610          (PC = $49C3) t=2996
0002 0002 0000 0000 0000 0000 0000 49C5 ------iq  SUBR R0,R1         3004
RD a=$49C5 d=0101 CP-1610          (PC = $49C5) t=3004
0002 0000 0000 0000 0000 0000 0000 49C6 -Z-C--iq  CLRR R0          3010
RD a=$49C6 d=01C0 CP-1610          (PC = $49C6) t=3010
0000 0000 0000 0000 0000 0000 0000 49C7 -Z-C--iq  RSWD R0          3016
RD a=$49C7 d=0038 CP-1610          (PC = $49C7) t=3016
0000 0000 0000 0000 0000 0000 0000 49C8 -------q  MVII #$0002,R0         3022
RD a=$49C8 d=02B8 CP-1610          (PC = $49C8) t=3022
RD a=$49C9 d=0002 CP-1610          (PC = $49C8) t=3022
0002 0000 0000 0000 0000 0000 0000 49CA ------iq  MVII #$8001,R1         3030
RD a=$49CA d=02B9 CP-1610          (PC = $49CA) t=3030
RD a=$49CB d=8001 CP-1610          (PC = $49CA) t=3030
0002 8001 0000 0000 0000 0000 0000 49CC ------iq  SUBR R0,R1         3038
RD a=$49CC d=0101 CP-1610          (PC = $49CC) t=3038
0002 7FFF 0000 0000 0000 0000 0000 49CD --OC--iq  CLRR R0          3044
RD a=$49CD d=01C0 CP-1610          (PC = $49CD) t=3044
0000 7FFF 0000 0000 0000 0000 0000 49CE -ZOC--iq  RSWD R0          3050
RD a=$49CE d=0038 CP-1610          (PC = $49CE) t=3050
0000 7FFF 0000 0000 0000 0000 0000 49CF -------q  CLRR R0          3056
RD a=$49CF d=01C0 CP-1610          (PC = $49CF) t=3056
0000 7FFF 0000 0000 0000 0000 0000 49D0 -Z----iq  CLRR R1          3062
RD a=$49D0 d=01C9 CP-1610          (PC = $49D0) t=3062
0000 0000 0000 0000 0000 0000 0000 49D1 -Z----iq  CMPR R0,R1         3068
RD a=$49D1 d=0141 CP-1610          (PC = $49D1) t=3068
0000 0000 0000 0000 0000 0000 0000 49D2 -Z-C--iq  CLRR R0          3074
RD a=$49D2 d=01C0 CP-1610          (PC = $49D2) t=3074
0000 0000 0000 0000 0000 0000 0000 49D3 -Z-C--iq  RSWD R0          3080
RD a=$49D3 d=0038 CP-1610          (PC = $49D3) t=3080
0000 0000 0000 0000 0000 0000 0000 49D4 -------q  MVII #$0002,R0         3086
RD a=$49D4 d=02B8 CP-1610          (PC = $49D4) t=3086
RD a=$49D5 d=0002 CP-1610          (PC = $49D4) t=3086
0002 0000 0000 0000 0000 0000 0000 49D6 ------iq  MVII #$0044,R1         3094
RD a=$49D6 d=02B9 CP-1610          (PC = $49D6) t=3094
RD a=$49D7 d=0044 CP-1610          (PC = $49D6) t=3094
0002 0044 0000 0000 0000 0000 0000 49D8 ------iq  CMPR R0,R1         3102
RD a=$49D8 d=0141 CP-1610          (PC = $49D8) t=3102
0002 0044 0000 0000 0000 0000 0000 49D9 ---C--iq  CLRR R0          3108
RD a=$49D9 d=01C0 CP-1610          (PC = $49D9) t=3108
0000 0044 0000 0000 0000 0000 0000 49DA -Z-C--iq  RSWD R0          3114
RD a=$49DA d=0038 CP-1610          (PC = $49DA) t=3114
0000 0044 0000 0000 0000 0000 0000 49DB -------q  MVII #$0044,R0         3120
RD a=$49DB d=02B8 CP-1610          (PC = $49DB) t=3120
RD a=$49DC d=0044 CP-1610          (PC = $49DB) t=3120
0044 0044 0000 0000 0000 0000 0000 49DD ------iq  MVII #$0002,R1         3128
RD a=$49DD d=02B9 CP-1610          (PC = $49DD) t=3128
RD a=$49DE d=0002 CP-1610          (PC = $49DD) t=3128
0044 0002 0000 0000 0000 0000 0000 49DF ------iq  CMPR R0,R1         3136
RD a=$49DF d=0141 CP-1610          (PC = $49DF) t=3136
0044 0002 0000 0000 0000 0000 0000 49E0 S-----iq  CLRR R0          3142
RD a=$49E0 d=01C0 CP-1610          (PC = $49E0) t=3142
0000 0002 0000 0000 0000 0000 0000 49E1 -Z----iq  RSWD R0          3148
RD a=$49E1 d=0038 CP-1610          (PC = $49E1) t=3148
0000 0002 0000 0000 0000 0000 0000 49E2 -------q  MVII #$0002,R0         3154
RD a=$49E2 d=02B8 CP-1610          (PC = $49E2) t=3154
RD a=$49E3 d=0002 CP-1610          (PC = $49E2) t=3154
0002 0002 0000 0000 0000 0000 0000 49E4 ------iq  MVII #$0002,R1         3162
RD a=$49E4 d=02B9 CP-1610          (PC = $49E4) t=3162
RD a=$49E5 d=0002 CP-1610          (PC = $49E4) t=3162
0002 0002 0000 0000 0000 0000 0000 49E6 ------iq  CMPR R0,R1         3170
RD a=$49E6 d=0141 CP-1610          (PC = $49E6) t=3170
0002 0002 0000 0000 0000 0000 0000 49E7 -Z-C--iq  CLRR R0          3176
RD a=$49E7 d=01C0 CP-1610          (PC = $49E7) t=3176
0000 0002 0000 0000 0000 0000 0000 49E8 -Z-C--iq  RSWD R0          3182
RD a=$49E8 d=0038 CP-1610          (PC = $49E8) t=3182
0000 0002 0000 0000 0000 0000 0000 49E9 -------q  MVII #$0002,R0         3188
RD a=$49E9 d=02B8 CP-1610          (PC = $49E9) t=3188
RD a=$49EA d=0002 CP-1610          (PC = $49E9) t=3188
0002 0002 0000 0000 0000 0000 0000 49EB ------iq  MVII #$8001,R1         3196
RD a=$49EB d=02B9 CP-1610          (PC = $49EB) t=3196
RD a=$49EC d=8001 CP-1610          (PC = $49EB) t=3196
0002 8001 0000 0000 0000 0000 0000 49ED ------iq  CMPR R0,R1         3204
RD a=$49ED d=0141 CP-1610          (PC = $49ED) t=3204
0002 8001 0000 0000 0000 0000 0000 49EE --OC--iq  MVII #$FFFF,R0         3210
RD a=$49EE d=02B8 CP-1610          (PC = $49EE) t=3210
RD a=$49EF d=FFFF CP-1610          (PC = $49EE) t=3210
FFFF 8001 0000 0000 0000 0000 0000 49F0 --OC--iq  CLRR R1          3218
RD a=$49F0 d=01C9 CP-1610          (PC = $49F0) t=3218
FFFF 0000 0000 0000 0000 0000 0000 49F1 -ZOC--iq  RSWD R1          3224
RD a=$49F1 d=0039 CP-1610          (PC = $49F1) t=3224
FFFF 0000 0000 0000 0000 0000 0000 49F2 -------q  ANDR R0,R1         3230
RD a=$49F2 d=0181 CP-1610          (PC = $49F2) t=3230
FFFF 0000 0000 0000 0000 0000 0000 49F3 -Z----iq  MVII #$8000,R0         3236
RD a=$49F3 d=02B8 CP-1610          (PC = $49F3) t=3236
RD a=$49F4 d=8000 CP-1610          (PC = $49F3) t=3236
8000 0000 0000 0000 0000 0000 0000 49F5 -Z----iq  MVII #$FFFF,R1         3244
RD a=$49F5 d=02B9 CP-1610          (PC = $49F5) t=3244
RD a=$49F6 d=FFFF CP-1610          (PC = $49F5) t=3244
8000 FFFF 0000 0000 0000 0000 0000 49F7 -Z----iq  CLRR R2          3252
RD a=$49F7 d=01D2 CP-1610          (PC = $49F7) t=3252
8000 FFFF 0000 0000 0000 0000 0000 49F8 -Z----iq  RSWD R2          3258
RD a=$49F8 d=003A CP-1610          (PC = $49F8) t=3258
8000 FFFF 0000 0000 0000 0000 0000 49F9 -------q  ANDR R0,R1         3264
RD a=$49F9 d=0181 CP-1610          (PC = $49F9) t=3264
8000 8000 0000 0000 0000 0000 0000 49FA S-----iq  MVII #$FFFF,R0         3270
RD a=$49FA d=02B8 CP-1610          (PC = $49FA) t=3270
RD a=$49FB d=FFFF CP-1610          (PC = $49FA) t=3270
FFFF 8000 0000 0000 0000 0000 0000 49FC S-----iq  MVII #$FFFF,R1         3278
RD a=$49FC d=02B9 CP-1610          (PC = $49FC) t=3278
RD a=$49FD d=FFFF CP-1610          (PC = $49FC) t=3278
FFFF FFFF 0000 0000 0000 0000 0000 49FE S-----iq  CLRR R2          3286
RD a=$49FE d=01D2 CP-1610          (PC = $49FE) t=3286
FFFF FFFF 0000 0000 0000 0000 0000 49FF -Z----iq  RSWD R2          3292
RD a=$49FF d=003A CP-1610          (PC = $49FF) t=3292
FFFF FFFF 0000 0000 0000 0000 0000 4A00 -------q  XORR R0,R1         3298
RD a=$4A00 d=01C1 CP-1610          (PC = $4A00) t=3298
FFFF 0000 0000 0000 0000 0000 0000 4A01 -Z----iq  MVII #$8000,R0         3304
RD a=$4A01 d=02B8 CP-1610          (PC = $4A01) t=3304
RD a=$4A02 d=8000 CP-1610          (PC = $4A01) t=3304
8000 0000 0000 0000 0000 0000 0000 4A03 -Z----iq  CLRR R1          3312
RD a=$4A03 d=01C9 CP-1610          (PC = $4A03) t=3312
8000 0000 0000 0000 0000 0000 0000 4A04 -Z----iq  RSWD R1          3318
RD a=$4A04 d=0039 CP-1610          (PC = $4A04) t=3318
8000 0000 0000 0000 0000 0000 0000 4A05 -------q  XORR R0,R1         3324
RD a=$4A05 d=01C1 CP-1610          (PC = $4A05) t=3324
8000 8000 0000 0000 0000 0000 0000 4A06 S-----iq  MVII #$ABCD,R0         3330
RD a=$4A06 d=02B8 CP-1610          (PC = $4A06) t=3330
RD a=$4A07 d=ABCD CP-1610          (PC = $4A06) t=3330
ABCD 8000 0000 0000 0000 0000 0000 4A08 S-----iq  CLRR R2          3338
RD a=$4A08 d=01D2 CP-1610          (PC = $4A08) t=3338
ABCD 8000 0000 0000 0000 0000 0000 4A09 -Z----iq  RSWD R2          3344
RD a=$4A09 d=003A CP-1610          (PC = $4A09) t=3344
ABCD 8000 0000 0000 0000 0000 0000 4A0A -------q  CLRR R0          3350
RD a=$4A0A d=01C0 CP-1610          (PC = $4A0A) t=3350
0000 8000 0000 0000 0000 0000 0000 4A0B -Z----iq  CLRR R0          3356
RD a=$4A0B d=01C0 CP-1610          (PC = $4A0B) t=3356
0000 8000 0000 0000 0000 0000 0000 4A0C -Z----iq  RSWD R0          3362
RD a=$4A0C d=0038 CP-1610          (PC = $4A0C) t=3362
0000 8000 0000 0000 0000 0000 0000 4A0D -------q  B    $4A10          3368
RD a=$4A0D d=0200 CP-1610          (PC = $4A0D) t=3368
RD a=$4A0E d=0001 CP-1610          (PC = $4A0D) t=3368
0000 8000 0000 0000 0000 0000 0000 4A10 ------iq  CLRR R0          3377
RD a=$4A10 d=01C0 CP-1610          (PC = $4A10) t=3377
0000 8000 0000 0000 0000 0000 0000 4A11 -Z----iq  RSWD R0          3383
RD a=$4A11 d=0038 CP-1610          (PC = $4A11) t=3383
0000 8000 0000 0000 0000 0000 0000 4A12 -------q  MVII #$0010,R0         3389
RD a=$4A12 d=02B8 CP-1610          (PC = $4A12) t=3389
RD a=$4A13 d=0010 CP-1610          (PC = $4A12) t=3389
0010 8000 0000 0000 0000 0000 0000 4A14 ------iq  RSWD R0          3397
RD a=$4A14 d=0038 CP-1610          (PC = $4A14) t=3397
0010 8000 0000 0000 0000 0000 0000 4A15 ---C---q  BC   $4A18          3403
RD a=$4A15 d=0201 CP-1610          (PC = $4A15) t=3403
RD a=$4A16 d=0001 CP-1610          (PC = $4A15) t=3403
0010 8000 0000 0000 0000 0000 0000 4A18 ---C--iq  CLRR R0          3412
RD a=$4A18 d=01C0 CP-1610          (PC = $4A18) t=3412
0000 8000 0000 0000 0000 0000 0000 4A19 -Z-C--iq  RSWD R0          3418
RD a=$4A19 d=0038 CP-1610          (PC = $4A19) t=3418
0000 8000 0000 0000 0000 0000 0000 4A1A -------q  MVII #$0020,R0         3424
RD a=$4A1A d=02B8 CP-1610          (PC = $4A1A) t=3424
RD a=$4A1B d=0020 CP-1610          (PC = $4A1A) t=3424
0020 8000 0000 0000 0000 0000 0000 4A1C ------iq  RSWD R0          3432
RD a=$4A1C d=0038 CP-1610          (PC = $4A1C) t=3432
0020 8000 0000 0000 0000 0000 0000 4A1D --O----q  BOV  $4A20          3438
RD a=$4A1D d=0202 CP-1610          (PC = $4A1D) t=3438
RD a=$4A1E d=0001 CP-1610          (PC = $4A1D) t=3438
0020 8000 0000 0000 0000 0000 0000 4A20 --O---iq  MVII #$0080,R0         3447
RD a=$4A20 d=02B8 CP-1610          (PC = $4A20) t=3447
RD a=$4A21 d=0080 CP-1610          (PC = $4A20) t=3447
0080 8000 0000 0000 0000 0000 0000 4A22 --O---iq  RSWD R0          3455
RD a=$4A22 d=0038 CP-1610          (PC = $4A22) t=3455
0080 8000 0000 0000 0000 0000 0000 4A23 S------q  CLRR R0          3461
RD a=$4A23 d=01C0 CP-1610          (PC = $4A23) t=3461
0000 8000 0000 0000 0000 0000 0000 4A24 -Z----iq  RSWD R0          3467
RD a=$4A24 d=0038 CP-1610          (PC = $4A24) t=3467
0000 8000 0000 0000 0000 0000 0000 4A25 -------q  BPL  $4A28          3473
RD a=$4A25 d=0203 CP-1610          (PC = $4A25) t=3473
RD a=$4A26 d=0001 CP-1610          (PC = $4A25) t=3473
0000 8000 0000 0000 0000 0000 0000 4A28 ------iq  CLRR R0          3482
RD a=$4A28 d=01C0 CP-1610          (PC = $4A28) t=3482
0000 8000 0000 0000 0000 0000 0000 4A29 -Z----iq  RSWD R0          3488
RD a=$4A29 d=0038 CP-1610          (PC = $4A29) t=3488
0000 8000 0000 0000 0000 0000 0000 4A2A -------q  MVII #$0040,R0         3494
RD a=$4A2A d=02B8 CP-1610          (PC = $4A2A) t=3494
RD a=$4A2B d=0040 CP-1610          (PC = $4A2A) t=3494
0040 8000 0000 0000 0000 0000 0000 4A2C ------iq  RSWD R0          3502
RD a=$4A2C d=0038 CP-1610          (PC = $4A2C) t=3502
0040 8000 0000 0000 0000 0000 0000 4A2D -Z-----q  BEQ  $4A30          3508
RD a=$4A2D d=0204 CP-1610          (PC = $4A2D) t=3508
RD a=$4A2E d=0001 CP-1610          (PC = $4A2D) t=3508
0040 8000 0000 0000 0000 0000 0000 4A30 -Z----iq  CLRR R0          3517
RD a=$4A30 d=01C0 CP-1610          (PC = $4A30) t=3517
0000 8000 0000 0000 0000 0000 0000 4A31 -Z----iq  RSWD R0          3523
RD a=$4A31 d=0038 CP-1610          (PC = $4A31) t=3523
0000 8000 0000 0000 0000 0000 0000 4A32 -------q  MVII #$00A0,R0         3529
RD a=$4A32 d=02B8 CP-1610          (PC = $4A32) t=3529
RD a=$4A33 d=00A0 CP-1610          (PC = $4A32) t=3529
00A0 8000 0000 0000 0000 0000 0000 4A34 ------iq  RSWD R0          3537
RD a=$4A34 d=0038 CP-1610          (PC = $4A34) t=3537
00A0 8000 0000 0000 0000 0000 0000 4A35 S-O----q  MVII #$0020,R0         3543
RD a=$4A35 d=02B8 CP-1610          (PC = $4A35) t=3543
RD a=$4A36 d=0020 CP-1610          (PC = $4A35) t=3543
0020 8000 0000 0000 0000 0000 0000 4A37 S-O---iq  RSWD R0          3551
RD a=$4A37 d=0038 CP-1610          (PC = $4A37) t=3551
0020 8000 0000 0000 0000 0000 0000 4A38 --O----q  BLT  $4A3B          3557
RD a=$4A38 d=0205 CP-1610          (PC = $4A38) t=3557
RD a=$4A39 d=0001 CP-1610          (PC = $4A38) t=3557
0020 8000 0000 0000 0000 0000 0000 4A3B --O---iq  MVII #$0080,R0         3566
RD a=$4A3B d=02B8 CP-1610          (PC = $4A3B) t=3566
RD a=$4A3C d=0080 CP-1610          (PC = $4A3B) t=3566
0080 8000 0000 0000 0000 0000 0000 4A3D --O---iq  RSWD R0          3574
RD a=$4A3D d=0038 CP-1610          (PC = $4A3D) t=3574
0080 8000 0000 0000 0000 0000 0000 4A3E S------q  BLT  $4A41          3580
RD a=$4A3E d=0205 CP-1610          (PC = $4A3E) t=3580
RD a=$4A3F d=0001 CP-1610          (PC = $4A3E) t=3580
0080 8000 0000 0000 0000 0000 0000 4A41 S-----iq  CLRR R0          3589
RD a=$4A41 d=01C0 CP-1610          (PC = $4A41) t=3589
0000 8000 0000 0000 0000 0000 0000 4A42 -Z----iq  RSWD R0          3595
RD a=$4A42 d=0038 CP-1610          (PC = $4A42) t=3595
0000 8000 0000 0000 0000 0000 0000 4A43 -------q  MVII #$00A0,R0         3601
RD a=$4A43 d=02B8 CP-1610          (PC = $4A43) t=3601
RD a=$4A44 d=00A0 CP-1610          (PC = $4A43) t=3601
00A0 8000 0000 0000 0000 0000 0000 4A45 ------iq  RSWD R0          3609
RD a=$4A45 d=0038 CP-1610          (PC = $4A45) t=3609
00A0 8000 0000 0000 0000 0000 0000 4A46 S-O----q  MVII #$0040,R0         3615
RD a=$4A46 d=02B8 CP-1610          (PC = $4A46) t=3615
RD a=$4A47 d=0040 CP-1610          (PC = $4A46) t=3615
0040 8000 0000 0000 0000 0000 0000 4A48 S-O---iq  RSWD R0          3623
RD a=$4A48 d=0038 CP-1610          (PC = $4A48) t=3623
0040 8000 0000 0000 0000 0000 0000 4A49 -Z-----q  BLE  $4A4C          3629
RD a=$4A49 d=0206 CP-1610          (PC = $4A49) t=3629
RD a=$4A4A d=0001 CP-1610          (PC = $4A49) t=3629
0040 8000 0000 0000 0000 0000 0000 4A4C -Z----iq  MVII #$0020,R0         3638
RD a=$4A4C d=02B8 CP-1610          (PC = $4A4C) t=3638
RD a=$4A4D d=0020 CP-1610          (PC = $4A4C) t=3638
0020 8000 0000 0000 0000 0000 0000 4A4E -Z----iq  RSWD R0          3646
RD a=$4A4E d=0038 CP-1610          (PC = $4A4E) t=3646
0020 8000 0000 0000 0000 0000 0000 4A4F --O----q  BLE  $4A52          3652
RD a=$4A4F d=0206 CP-1610          (PC = $4A4F) t=3652
RD a=$4A50 d=0001 CP-1610          (PC = $4A4F) t=3652
0020 8000 0000 0000 0000 0000 0000 4A52 --O---iq  MVII #$0080,R0         3661
RD a=$4A52 d=02B8 CP-1610          (PC = $4A52) t=3661
RD a=$4A53 d=0080 CP-1610          (PC = $4A52) t=3661
0080 8000 0000 0000 0000 0000 0000 4A54 --O---iq  RSWD R0          3669
RD a=$4A54 d=0038 CP-1610          (PC = $4A54) t=3669
0080 8000 0000 0000 0000 0000 0000 4A55 S------q  BLE  $4A58          3675
RD a=$4A55 d=0206 CP-1610          (PC = $4A55) t=3675
RD a=$4A56 d=0001 CP-1610          (PC = $4A55) t=3675
0080 8000 0000 0000 0000 0000 0000 4A58 S-----iq  CLRR R0          3684
RD a=$4A58 d=01C0 CP-1610          (PC = $4A58) t=3684
0000 8000 0000 0000 0000 0000 0000 4A59 -Z----iq  RSWD R0          3690
RD a=$4A59 d=0038 CP-1610          (PC = $4A59) t=3690
0000 8000 0000 0000 0000 0000 0000 4A5A -------q  MVII #$0090,R0         3696
RD a=$4A5A d=02B8 CP-1610          (PC = $4A5A) t=3696
RD a=$4A5B d=0090 CP-1610          (PC = $4A5A) t=3696
0090 8000 0000 0000 0000 0000 0000 4A5C ------iq  RSWD R0          3704
RD a=$4A5C d=0038 CP-1610          (PC = $4A5C) t=3704
0090 8000 0000 0000 0000 0000 0000 4A5D S--C---q  MVII #$0010,R0         3710
RD a=$4A5D d=02B8 CP-1610          (PC = $4A5D) t=3710
RD a=$4A5E d=0010 CP-1610          (PC = $4A5D) t=3710
0010 8000 0000 0000 0000 0000 0000 4A5F S--C--iq  RSWD R0          3718
RD a=$4A5F d=0038 CP-1610          (PC = $4A5F) t=3718
0010 8000 0000 0000 0000 0000 0000 4A60 ---C---q  BUSC $4A63          3724
RD a=$4A60 d=0207 CP-1610          (PC = $4A60) t=3724
RD a=$4A61 d=0001 CP-1610          (PC = $4A60) t=3724
0010 8000 0000 0000 0000 0000 0000 4A63 ---C--iq  MVII #$0080,R0         3733
RD a=$4A63 d=02B8 CP-1610          (PC = $4A63) t=3733
RD a=$4A64 d=0080 CP-1610          (PC = $4A63) t=3733
0080 8000 0000 0000 0000 0000 0000 4A65 ---C--iq  RSWD R0          3741
RD a=$4A65 d=0038 CP-1610          (PC = $4A65) t=3741
0080 8000 0000 0000 0000 0000 0000 4A66 S------q  BUSC $4A69          3747
RD a=$4A66 d=0207 CP-1610          (PC = $4A66) t=3747
RD a=$4A67 d=0001 CP-1610          (PC = $4A66) t=3747
0080 8000 0000 0000 0000 0000 0000 4A69 S-----iq  MVII #$0000,R0         3756
RD a=$4A69 d=02B8 CP-1610          (PC = $4A69) t=3756
RD a=$4A6A d=0000 CP-1610          (PC = $4A69) t=3756
0000 8000 0000 0000 0000 0000 0000 4A6B S-----iq  RSWD R0          3764
RD a=$4A6B d=0038 CP-1610          (PC = $4A6B) t=3764
0000 8000 0000 0000 0000 0000 0000 4A6C -------q  MVII #$0010,R0         3770
RD a=$4A6C d=02B8 CP-1610          (PC = $4A6C) t=3770
RD a=$4A6D d=0010 CP-1610          (PC = $4A6C) t=3770
0010 8000 0000 0000 0000 0000 0000 4A6E ------iq  RSWD R0          3778
RD a=$4A6E d=0038 CP-1610          (PC = $4A6E) t=3778
0010 8000 0000 0000 0000 0000 0000 4A6F ---C---q  MVII #$0020,R0         3784
RD a=$4A6F d=02B8 CP-1610          (PC = $4A6F) t=3784
RD a=$4A70 d=0020 CP-1610          (PC = $4A6F) t=3784
0020 8000 0000 0000 0000 0000 0000 4A71 ---C--iq  RSWD R0          3792
RD a=$4A71 d=0038 CP-1610          (PC = $4A71) t=3792
0020 8000 0000 0000 0000 0000 0000 4A72 --O----q  MVII #$0040,R0         3798
RD a=$4A72 d=02B8 CP-1610          (PC = $4A72) t=3798
RD a=$4A73 d=0040 CP-1610          (PC = $4A72) t=3798
0040 8000 0000 0000 0000 0000 0000 4A74 --O---iq  RSWD R0          3806
RD a=$4A74 d=0038 CP-1610          (PC = $4A74) t=3806
0040 8000 0000 0000 0000 0000 0000 4A75 -Z-----q  MVII #$0080,R0         3812
RD a=$4A75 d=02B8 CP-1610          (PC = $4A75) t=3812
RD a=$4A76 d=0080 CP-1610          (PC = $4A75) t=3812
0080 8000 0000 0000 0000 0000 0000 4A77 -Z----iq  RSWD R0          3820
RD a=$4A77 d=0038 CP-1610          (PC = $4A77) t=3820
0080 8000 0000 0000 0000 0000 0000 4A78 S------q  MVII #$0010,R0         3826
RD a=$4A78 d=02B8 CP-1610          (PC = $4A78) t=3826
RD a=$4A79 d=0010 CP-1610          (PC = $4A78) t=3826
0010 8000 0000 0000 0000 0000 0000 4A7A S-----iq  RSWD R0          3834
RD a=$4A7A d=0038 CP-1610          (PC = $4A7A) t=3834
0010 8000 0000 0000 0000 0000 0000 4A7B ---C---q  CLRR R0          3840
RD a=$4A7B d=01C0 CP-1610          (PC = $4A7B) t=3840
0000 8000 0000 0000 0000 0000 0000 4A7C -Z-C--iq  RSWD R0          3846
RD a=$4A7C d=0038 CP-1610          (PC = $4A7C) t=3846
0000 8000 0000 0000 0000 0000 0000 4A7D -------q  BNC  $4A80          3852
RD a=$4A7D d=0209 CP-1610          (PC = $4A7D) t=3852
RD a=$4A7E d=0001 CP-1610          (PC = $4A7D) t=3852
0000 8000 0000 0000 0000 0000 0000 4A80 ------iq  MVII #$0020,R0         3861
RD a=$4A80 d=02B8 CP-1610          (PC = $4A80) t=3861
RD a=$4A81 d=0020 CP-1610          (PC = $4A80) t=3861
0020 8000 0000 0000 0000 0000 0000 4A82 ------iq  RSWD R0          3869
RD a=$4A82 d=0038 CP-1610          (PC = $4A82) t=3869
0020 8000 0000 0000 0000 0000 0000 4A83 --O----q  CLRR R0          3875
RD a=$4A83 d=01C0 CP-1610          (PC = $4A83) t=3875
0000 8000 0000 0000 0000 0000 0000 4A84 -ZO---iq  RSWD R0          3881
RD a=$4A84 d=0038 CP-1610          (PC = $4A84) t=3881
0000 8000 0000 0000 0000 0000 0000 4A85 -------q  BNOV $4A88          3887
RD a=$4A85 d=020A CP-1610          (PC = $4A85) t=3887
RD a=$4A86 d=0001 CP-1610          (PC = $4A85) t=3887
0000 8000 0000 0000 0000 0000 0000 4A88 ------iq  CLRR R0          3896
RD a=$4A88 d=01C0 CP-1610          (PC = $4A88) t=3896
0000 8000 0000 0000 0000 0000 0000 4A89 -Z----iq  RSWD R0          3902
RD a=$4A89 d=0038 CP-1610          (PC = $4A89) t=3902
0000 8000 0000 0000 0000 0000 0000 4A8A -------q  MVII #$0080,R0         3908
RD a=$4A8A d=02B8 CP-1610          (PC = $4A8A) t=3908
RD a=$4A8B d=0080 CP-1610          (PC = $4A8A) t=3908
0080 8000 0000 0000 0000 0000 0000 4A8C ------iq  RSWD R0          3916
RD a=$4A8C d=0038 CP-1610          (PC = $4A8C) t=3916
0080 8000 0000 0000 0000 0000 0000 4A8D S------q  BMI  $4A90          3922
RD a=$4A8D d=020B CP-1610          (PC = $4A8D) t=3922
RD a=$4A8E d=0001 CP-1610          (PC = $4A8D) t=3922
0080 8000 0000 0000 0000 0000 0000 4A90 S-----iq  MVII #$0040,R0         3931
RD a=$4A90 d=02B8 CP-1610          (PC = $4A90) t=3931
RD a=$4A91 d=0040 CP-1610          (PC = $4A90) t=3931
0040 8000 0000 0000 0000 0000 0000 4A92 S-----iq  RSWD R0          3939
RD a=$4A92 d=0038 CP-1610          (PC = $4A92) t=3939
0040 8000 0000 0000 0000 0000 0000 4A93 -Z-----q  CLRR R0          3945
RD a=$4A93 d=01C0 CP-1610          (PC = $4A93) t=3945
0000 8000 0000 0000 0000 0000 0000 4A94 -Z----iq  RSWD R0          3951
RD a=$4A94 d=0038 CP-1610          (PC = $4A94) t=3951
0000 8000 0000 0000 0000 0000 0000 4A95 -------q  BNEQ $4A98          3957
RD a=$4A95 d=020C CP-1610          (PC = $4A95) t=3957
RD a=$4A96 d=0001 CP-1610          (PC = $4A95) t=3957
0000 8000 0000 0000 0000 0000 0000 4A98 ------iq  MVII #$0020,R0         3966
RD a=$4A98 d=02B8 CP-1610          (PC = $4A98) t=3966
RD a=$4A99 d=0020 CP-1610          (PC = $4A98) t=3966
0020 8000 0000 0000 0000 0000 0000 4A9A ------iq  RSWD R0          3974
RD a=$4A9A d=0038 CP-1610          (PC = $4A9A) t=3974
0020 8000 0000 0000 0000 0000 0000 4A9B --O----q  MVII #$0080,R0         3980
RD a=$4A9B d=02B8 CP-1610          (PC = $4A9B) t=3980
RD a=$4A9C d=0080 CP-1610          (PC = $4A9B) t=3980
0080 8000 0000 0000 0000 0000 0000 4A9D --O---iq  RSWD R0          3988
RD a=$4A9D d=0038 CP-1610          (PC = $4A9D) t=3988
0080 8000 0000 0000 0000 0000 0000 4A9E S------q  CLRR R0          3994
RD a=$4A9E d=01C0 CP-1610          (PC = $4A9E) t=3994
0000 8000 0000 0000 0000 0000 0000 4A9F -Z----iq  RSWD R0          4000
RD a=$4A9F d=0038 CP-1610          (PC = $4A9F) t=4000
0000 8000 0000 0000 0000 0000 0000 4AA0 -------q  BGE  $4AA3          4006
RD a=$4AA0 d=020D CP-1610          (PC = $4AA0) t=4006
RD a=$4AA1 d=0001 CP-1610          (PC = $4AA0) t=4006
0000 8000 0000 0000 0000 0000 0000 4AA3 ------iq  MVII #$00A0,R0         4015
RD a=$4AA3 d=02B8 CP-1610          (PC = $4AA3) t=4015
RD a=$4AA4 d=00A0 CP-1610          (PC = $4AA3) t=4015
00A0 8000 0000 0000 0000 0000 0000 4AA5 ------iq  RSWD R0          4023
RD a=$4AA5 d=0038 CP-1610          (PC = $4AA5) t=4023
00A0 8000 0000 0000 0000 0000 0000 4AA6 S-O----q  BGE  $4AA9          4029
RD a=$4AA6 d=020D CP-1610          (PC = $4AA6) t=4029
RD a=$4AA7 d=0001 CP-1610          (PC = $4AA6) t=4029
00A0 8000 0000 0000 0000 0000 0000 4AA9 S-O---iq  MVII #$0040,R0         4038
RD a=$4AA9 d=02B8 CP-1610          (PC = $4AA9) t=4038
RD a=$4AAA d=0040 CP-1610          (PC = $4AA9) t=4038
0040 8000 0000 0000 0000 0000 0000 4AAB S-O---iq  RSWD R0          4046
RD a=$4AAB d=0038 CP-1610          (PC = $4AAB) t=4046
0040 8000 0000 0000 0000 0000 0000 4AAC -Z-----q  MVII #$0020,R0         4052
RD a=$4AAC d=02B8 CP-1610          (PC = $4AAC) t=4052
RD a=$4AAD d=0020 CP-1610          (PC = $4AAC) t=4052
0020 8000 0000 0000 0000 0000 0000 4AAE -Z----iq  RSWD R0          4060
RD a=$4AAE d=0038 CP-1610          (PC = $4AAE) t=4060
0020 8000 0000 0000 0000 0000 0000 4AAF --O----q  MVII #$0080,R0         4066
RD a=$4AAF d=02B8 CP-1610          (PC = $4AAF) t=4066
RD a=$4AB0 d=0080 CP-1610          (PC = $4AAF) t=4066
0080 8000 0000 0000 0000 0000 0000 4AB1 --O---iq  RSWD R0          4074
RD a=$4AB1 d=0038 CP-1610          (PC = $4AB1) t=4074
0080 8000 0000 0000 0000 0000 0000 4AB2 S------q  CLRR R0          4080
RD a=$4AB2 d=01C0 CP-1610          (PC = $4AB2) t=4080
0000 8000 0000 0000 0000 0000 0000 4AB3 -Z----iq  RSWD R0          4086
RD a=$4AB3 d=0038 CP-1610          (PC = $4AB3) t=4086
0000 8000 0000 0000 0000 0000 0000 4AB4 -------q  BGT  $4AB7          4092
RD a=$4AB4 d=020E CP-1610          (PC = $4AB4) t=4092
RD a=$4AB5 d=0001 CP-1610          (PC = $4AB4) t=4092
0000 8000 0000 0000 0000 0000 0000 4AB7 ------iq  MVII #$00A0,R0         4101
RD a=$4AB7 d=02B8 CP-1610          (PC = $4AB7) t=4101
RD a=$4AB8 d=00A0 CP-1610          (PC = $4AB7) t=4101
00A0 8000 0000 0000 0000 0000 0000 4AB9 ------iq  RSWD R0          4109
RD a=$4AB9 d=0038 CP-1610          (PC = $4AB9) t=4109
00A0 8000 0000 0000 0000 0000 0000 4ABA S-O----q  BGT  $4ABD          4115
RD a=$4ABA d=020E CP-1610          (PC = $4ABA) t=4115
RD a=$4ABB d=0001 CP-1610          (PC = $4ABA) t=4115
00A0 8000 0000 0000 0000 0000 0000 4ABD S-O---iq  MVII #$0010,R0         4124
RD a=$4ABD d=02B8 CP-1610          (PC = $4ABD) t=4124
RD a=$4ABE d=0010 CP-1610          (PC = $4ABD) t=4124
0010 8000 0000 0000 0000 0000 0000 4ABF S-O---iq  RSWD R0          4132
RD a=$4ABF d=0038 CP-1610          (PC = $4ABF) t=4132
0010 8000 0000 0000 0000 0000 0000 4AC0 ---C---q  MVII #$0080,R0         4138
RD a=$4AC0 d=02B8 CP-1610          (PC = $4AC0) t=4138
RD a=$4AC1 d=0080 CP-1610          (PC = $4AC0) t=4138
0080 8000 0000 0000 0000 0000 0000 4AC2 ---C--iq  RSWD R0          4146
RD a=$4AC2 d=0038 CP-1610          (PC = $4AC2) t=4146
0080 8000 0000 0000 0000 0000 0000 4AC3 S------q  CLRR R0          4152
RD a=$4AC3 d=01C0 CP-1610          (PC = $4AC3) t=4152
0000 8000 0000 0000 0000 0000 0000 4AC4 -Z----iq  RSWD R0          4158
RD a=$4AC4 d=0038 CP-1610          (PC = $4AC4) t=4158
0000 8000 0000 0000 0000 0000 0000 4AC5 -------q  BESC $4AC8          4164
RD a=$4AC5 d=020F CP-1610          (PC = $4AC5) t=4164
RD a=$4AC6 d=0001 CP-1610          (PC = $4AC5) t=4164
0000 8000 0000 0000 0000 0000 0000 4AC8 ------iq  MVII #$0090,R0         4173
RD a=$4AC8 d=02B8 CP-1610          (PC = $4AC8) t=4173
RD a=$4AC9 d=0090 CP-1610          (PC = $4AC8) t=4173
0090 8000 0000 0000 0000 0000 0000 4ACA ------iq  RSWD R0          4181
RD a=$4ACA d=0038 CP-1610          (PC = $4ACA) t=4181
0090 8000 0000 0000 0000 0000 0000 4ACB S--C---q  BESC $4ACE          4187
RD a=$4ACB d=020F CP-1610          (PC = $4ACB) t=4187
RD a=$4ACC d=0001 CP-1610          (PC = $4ACB) t=4187
0090 8000 0000 0000 0000 0000 0000 4ACE S--C--iq  JSR  R4,$4CD0         4196
RD a=$4ACE d=0004 CP-1610          (PC = $4ACE) t=4196
RD a=$4ACF d=004C CP-1610          (PC = $4ACE) t=4196
RD a=$4AD0 d=00D0 CP-1610          (PC = $4ACE) t=4196
0090 8000 0000 0000 4AD1 0000 0000 4CD0 S--C--iq  CLRR R0          4209
RD a=$4CD0 d=01C0 CP-1610          (PC = $4CD0) t=4209
0000 8000 0000 0000 4AD1 0000 0000 4CD1 -Z-C--iq  CLRR R1          4215
RD a=$4CD1 d=01C9 CP-1610          (PC = $4CD1) t=4215
0000 0000 0000 0000 4AD1 0000 0000 4CD2 -Z-C--iq  CLRR R2          4221
RD a=$4CD2 d=01D2 CP-1610          (PC = $4CD2) t=4221
0000 0000 0000 0000 4AD1 0000 0000 4CD3 -Z-C--iq  CLRR R3          4227
RD a=$4CD3 d=01DB CP-1610          (PC = $4CD3) t=4227
0000 0000 0000 0000 4AD1 0000 0000 4CD4 -Z-C--iq  CLRR R5          4233
RD a=$4CD4 d=01ED CP-1610          (PC = $4CD4) t=4233
0000 0000 0000 0000 4AD1 0000 0000 4CD5 -Z-C--iq  CLRR R6          4239
RD a=$4CD5 d=01F6 CP-1610          (PC = $4CD5) t=4239
0000 0000 0000 0000 4AD1 0000 0000 4CD6 -Z-C--iq  JR   R4          4246
RD a=$4CD6 d=00A7 CP-1610          (PC = $4CD6) t=4246
0000 0000 0000 0000 4AD1 0000 0000 4AD1 ---C--iq  JSR  R4,$4CC2         4253
RD a=$4AD1 d=0004 CP-1610          (PC = $4AD1) t=4253
RD a=$4AD2 d=004C CP-1610          (PC = $4AD1) t=4253
RD a=$4AD3 d=00C2 CP-1610          (PC = $4AD1) t=4253
0000 0000 0000 0000 4AD4 0000 0000 4CC2 ---C--iq  MVII #$4242,R0         4266
RD a=$4CC2 d=02B8 CP-1610          (PC = $4CC2) t=4266
RD a=$4CC3 d=4242 CP-1610          (PC = $4CC2) t=4266
4242 0000 0000 0000 4AD4 0000 0000 4CC4 ---C--iq  MVII #$4242,R1         4274
RD a=$4CC4 d=02B9 CP-1610          (PC = $4CC4) t=4274
RD a=$4CC5 d=4242 CP-1610          (PC = $4CC4) t=4274
4242 4242 0000 0000 4AD4 0000 0000 4CC6 ---C--iq  MVII #$4242,R2         4282
RD a=$4CC6 d=02BA CP-1610          (PC = $4CC6) t=4282
RD a=$4CC7 d=4242 CP-1610          (PC = $4CC6) t=4282
4242 4242 4242 0000 4AD4 0000 0000 4CC8 ---C--iq  MVII #$4242,R3         4290
RD a=$4CC8 d=02BB CP-1610          (PC = $4CC8) t=4290
RD a=$4CC9 d=4242 CP-1610          (PC = $4CC8) t=4290
4242 4242 4242 4242 4AD4 0000 0000 4CCA ---C--iq  MVII #$4242,R5         4298
RD a=$4CCA d=02BD CP-1610          (PC = $4CCA) t=4298
RD a=$4CCB d=4242 CP-1610          (PC = $4CCA) t=4298
4242 4242 4242 4242 4AD4 4242 0000 4CCC ---C--iq  MVII #$4242,R6         4306
RD a=$4CCC d=02BE CP-1610          (PC = $4CCC) t=4306
RD a=$4CCD d=4242 CP-1610          (PC = $4CCC) t=4306
4242 4242 4242 4242 4AD4 4242 4242 4CCE ---C--iq  JR   R4          4315
RD a=$4CCE d=00A7 CP-1610          (PC = $4CCE) t=4315
4242 4242 4242 4242 4AD4 4242 4242 4AD4 ---C--iq  MVII #$4242,R4         4322
RD a=$4AD4 d=02BC CP-1610          (PC = $4AD4) t=4322
RD a=$4AD5 d=4242 CP-1610          (PC = $4AD4) t=4322
4242 4242 4242 4242 4242 4242 4242 4AD6 ---C--iq  MVO  R0,$0200         4330
RD a=$4AD6 d=0240 CP-1610          (PC = $4AD6) t=4330
RD a=$4AD7 d=0200 CP-1610          (PC = $4AD6) t=4330
WR a=$0200 d=4242 CP-1610          (PC = $4AD6) t=4330
4242 4242 4242 4242 4242 4242 4242 4AD8 ---C---q  MVO  R1,$0201         4341
RD a=$4AD8 d=0241 CP-1610          (PC = $4AD8) t=4341
RD a=$4AD9 d=0201 CP-1610          (PC = $4AD8) t=4341
WR a=$0201 d=4242 CP-1610          (PC = $4AD8) t=4341
4242 4242 4242 4242 4242 4242 4242 4ADA ---C---q  MVO  R2,$0202         4352
RD a=$4ADA d=0242 CP-1610          (PC = $4ADA) t=4352
RD a=$4ADB d=0202 CP-1610          (PC = $4ADA) t=4352
WR a=$0202 d=4242 CP-1610          (PC = $4ADA) t=4352
4242 4242 4242 4242 4242 4242 4242 4ADC ---C---q  MVO  R3,$0203         4363
RD a=$4ADC d=0243 CP-1610          (PC = $4ADC) t=4363
RD a=$4ADD d=0203 CP-1610          (PC = $4ADC) t=4363
WR a=$0203 d=4242 CP-1610          (PC = $4ADC) t=4363
4242 4242 4242 4242 4242 4242 4242 4ADE ---C---q  MVO  R4,$0204         4374
RD a=$4ADE d=0244 CP-1610          (PC = $4ADE) t=4374
RD a=$4ADF d=0204 CP-1610          (PC = $4ADE) t=4374
WR a=$0204 d=4242 CP-1610          (PC = $4ADE) t=4374
4242 4242 4242 4242 4242 4242 4242 4AE0 ---C---q  MVO  R5,$0205         4385
RD a=$4AE0 d=0245 CP-1610          (PC = $4AE0) t=4385
RD a=$4AE1 d=0205 CP-1610          (PC = $4AE0) t=4385
WR a=$0205 d=4242 CP-1610          (PC = $4AE0) t=4385
4242 4242 4242 4242 4242 4242 4242 4AE2 ---C---q  MVO  R6,$0206         4396
RD a=$4AE2 d=0246 CP-1610          (PC = $4AE2) t=4396
RD a=$4AE3 d=0206 CP-1610          (PC = $4AE2) t=4396
WR a=$0206 d=4242 CP-1610          (PC = $4AE2) t=4396
4242 4242 4242 4242 4242 4242 4242 4AE4 ---C---q  MVO  R7,$0207         4407
RD a=$4AE4 d=0247 CP-1610          (PC = $4AE4) t=4407
RD a=$4AE5 d=0207 CP-1610          (PC = $4AE4) t=4407
WR a=$0207 d=4AE6 CP-1610          (PC = $4AE4) t=4407
4242 4242 4242 4242 4242 4242 4242 4AE6 ---C---q  JSR  R4,$4CD8         4418
RD a=$4AE6 d=0004 CP-1610          (PC = $4AE6) t=4418
RD a=$4AE7 d=004C CP-1610          (PC = $4AE6) t=4418
RD a=$4AE8 d=00D8 CP-1610          (PC = $4AE6) t=4418
4242 4242 4242 4242 4AE9 4242 4242 4CD8 ---C--iq  CLRR R0          4431
RD a=$4CD8 d=01C0 CP-1610          (PC = $4CD8) t=4431
0000 4242 4242 4242 4AE9 4242 4242 4CD9 -Z-C--iq  MVO  R0,$0200         4437
RD a=$4CD9 d=0240 CP-1610          (PC = $4CD9) t=4437
RD a=$4CDA d=0200 CP-1610          (PC = $4CD9) t=4437
WR a=$0200 d=0000 CP-1610          (PC = $4CD9) t=4437
0000 4242 4242 4242 4AE9 4242 4242 4CDB -Z-C---q  MVO  R0,$0201         4448
RD a=$4CDB d=0240 CP-1610          (PC = $4CDB) t=4448
RD a=$4CDC d=0201 CP-1610          (PC = $4CDB) t=4448
WR a=$0201 d=0000 CP-1610          (PC = $4CDB) t=4448
0000 4242 4242 4242 4AE9 4242 4242 4CDD -Z-C---q  MVO  R0,$0202         4459
RD a=$4CDD d=0240 CP-1610          (PC = $4CDD) t=4459
RD a=$4CDE d=0202 CP-1610          (PC = $4CDD) t=4459
WR a=$0202 d=0000 CP-1610          (PC = $4CDD) t=4459
0000 4242 4242 4242 4AE9 4242 4242 4CDF -Z-C---q  MVO  R0,$0203         4470
RD a=$4CDF d=0240 CP-1610          (PC = $4CDF) t=4470
RD a=$4CE0 d=0203 CP-1610          (PC = $4CDF) t=4470
WR a=$0203 d=0000 CP-1610          (PC = $4CDF) t=4470
0000 4242 4242 4242 4AE9 4242 4242 4CE1 -Z-C---q  MVO  R0,$0204         4481
RD a=$4CE1 d=0240 CP-1610          (PC = $4CE1) t=4481
RD a=$4CE2 d=0204 CP-1610          (PC = $4CE1) t=4481
WR a=$0204 d=0000 CP-1610          (PC = $4CE1) t=4481
0000 4242 4242 4242 4AE9 4242 4242 4CE3 -Z-C---q  MVO  R0,$0205         4492
RD a=$4CE3 d=0240 CP-1610          (PC = $4CE3) t=4492
RD a=$4CE4 d=0205 CP-1610          (PC = $4CE3) t=4492
WR a=$0205 d=0000 CP-1610          (PC = $4CE3) t=4492
0000 4242 4242 4242 4AE9 4242 4242 4CE5 -Z-C---q  MVO  R0,$0206         4503
RD a=$4CE5 d=0240 CP-1610          (PC = $4CE5) t=4503
RD a=$4CE6 d=0206 CP-1610          (PC = $4CE5) t=4503
WR a=$0206 d=0000 CP-1610          (PC = $4CE5) t=4503
0000 4242 4242 4242 4AE9 4242 4242 4CE7 -Z-C---q  MVO  R0,$0207         4514
RD a=$4CE7 d=0240 CP-1610          (PC = $4CE7) t=4514
RD a=$4CE8 d=0207 CP-1610          (PC = $4CE7) t=4514
WR a=$0207 d=0000 CP-1610          (PC = $4CE7) t=4514
0000 4242 4242 4242 4AE9 4242 4242 4CE9 -Z-C---q  MVO  R0,$0208         4525
RD a=$4CE9 d=0240 CP-1610          (PC = $4CE9) t=4525
RD a=$4CEA d=0208 CP-1610          (PC = $4CE9) t=4525
WR a=$0208 d=0000 CP-1610          (PC = $4CE9) t=4525
0000 4242 4242 4242 4AE9 4242 4242 4CEB -Z-C---q  MVO  R0,$0209         4536
RD a=$4CEB d=0240 CP-1610          (PC = $4CEB) t=4536
RD a=$4CEC d=0209 CP-1610          (PC = $4CEB) t=4536
WR a=$0209 d=0000 CP-1610          (PC = $4CEB) t=4536
0000 4242 4242 4242 4AE9 4242 4242 4CED -Z-C---q  MVO  R0,$020A         4547
RD a=$4CED d=0240 CP-1610          (PC = $4CED) t=4547
RD a=$4CEE d=020A CP-1610          (PC = $4CED) t=4547
WR a=$020A d=0000 CP-1610          (PC = $4CED) t=4547
0000 4242 4242 4242 4AE9 4242 4242 4CEF -Z-C---q  MVO  R0,$020C         4558
RD a=$4CEF d=0240 CP-1610          (PC = $4CEF) t=4558
RD a=$4CF0 d=020C CP-1610          (PC = $4CEF) t=4558
WR a=$020C d=0000 CP-1610          (PC = $4CEF) t=4558
0000 4242 4242 4242 4AE9 4242 4242 4CF1 -Z-C---q  MVO  R0,$020D         4569
RD a=$4CF1 d=0240 CP-1610          (PC = $4CF1) t=4569
RD a=$4CF2 d=020D CP-1610          (PC = $4CF1) t=4569
WR a=$020D d=0000 CP-1610          (PC = $4CF1) t=4569
0000 4242 4242 4242 4AE9 4242 4242 4CF3 -Z-C---q  MVO  R0,$020E         4580
RD a=$4CF3 d=0240 CP-1610          (PC = $4CF3) t=4580
RD a=$4CF4 d=020E CP-1610          (PC = $4CF3) t=4580
WR a=$020E d=0000 CP-1610          (PC = $4CF3) t=4580
0000 4242 4242 4242 4AE9 4242 4242 4CF5 -Z-C---q  MVO  R0,$020F         4591
RD a=$4CF5 d=0240 CP-1610          (PC = $4CF5) t=4591
RD a=$4CF6 d=020F CP-1610          (PC = $4CF5) t=4591
WR a=$020F d=0000 CP-1610          (PC = $4CF5) t=4591
0000 4242 4242 4242 4AE9 4242 4242 4CF7 -Z-C---q  JR   R4          4602
RD a=$4CF7 d=00A7 CP-1610          (PC = $4CF7) t=4602
0000 4242 4242 4242 4AE9 4242 4242 4AE9 ---C--iq  MVII #$4242,R0         4609
RD a=$4AE9 d=02B8 CP-1610          (PC = $4AE9) t=4609
RD a=$4AEA d=4242 CP-1610          (PC = $4AE9) t=4609
4242 4242 4242 4242 4AE9 4242 4242 4AEB ---C--iq  MVII #$0200,R1         4617
RD a=$4AEB d=02B9 CP-1610          (PC = $4AEB) t=4617
RD a=$4AEC d=0200 CP-1610          (PC = $4AEB) t=4617
4242 0200 4242 4242 4AE9 4242 4242 4AED ---C--iq  MVII #$0201,R2         4625
RD a=$4AED d=02BA CP-1610          (PC = $4AED) t=4625
RD a=$4AEE d=0201 CP-1610          (PC = $4AED) t=4625
4242 0200 0201 4242 4AE9 4242 4242 4AEF ---C--iq  MVII #$0202,R3         4633
RD a=$4AEF d=02BB CP-1610          (PC = $4AEF) t=4633
RD a=$4AF0 d=0202 CP-1610          (PC = $4AEF) t=4633
4242 0200 0201 0202 4AE9 4242 4242 4AF1 ---C--iq  MVII #$0203,R4         4641
RD a=$4AF1 d=02BC CP-1610          (PC = $4AF1) t=4641
RD a=$4AF2 d=0203 CP-1610          (PC = $4AF1) t=4641
4242 0200 0201 0202 0203 4242 4242 4AF3 ---C--iq  MVII #$0204,R5         4649
RD a=$4AF3 d=02BD CP-1610          (PC = $4AF3) t=4649
RD a=$4AF4 d=0204 CP-1610          (PC = $4AF3) t=4649
4242 0200 0201 0202 0203 0204 4242 4AF5 ---C--iq  MVII #$0205,R6         4657
RD a=$4AF5 d=02BE CP-1610          (PC = $4AF5) t=4657
RD a=$4AF6 d=0205 CP-1610          (PC = $4AF5) t=4657
4242 0200 0201 0202 0203 0204 0205 4AF7 ---C--iq  MVO@ R0,R1         4666
RD a=$4AF7 d=0248 CP-1610          (PC = $4AF7) t=4666
WR a=$0200 d=4242 CP-1610          (PC = $4AF7) t=4666
4242 0200 0201 0202 0203 0204 0205 4AF8 ---C---q  MVO@ R0,R2         4675
RD a=$4AF8 d=0250 CP-1610          (PC = $4AF8) t=4675
WR a=$0201 d=4242 CP-1610          (PC = $4AF8) t=4675
4242 0200 0201 0202 0203 0204 0205 4AF9 ---C---q  MVO@ R0,R3         4684
RD a=$4AF9 d=0258 CP-1610          (PC = $4AF9) t=4684
WR a=$0202 d=4242 CP-1610          (PC = $4AF9) t=4684
4242 0200 0201 0202 0203 0204 0205 4AFA ---C---q  MVO@ R0,R4         4693
RD a=$4AFA d=0260 CP-1610          (PC = $4AFA) t=4693
WR a=$0203 d=4242 CP-1610          (PC = $4AFA) t=4693
4242 0200 0201 0202 0204 0204 0205 4AFB ---C---q  MVO@ R0,R5         4702
RD a=$4AFB d=0268 CP-1610          (PC = $4AFB) t=4702
WR a=$0204 d=4242 CP-1610          (PC = $4AFB) t=4702
4242 0200 0201 0202 0204 0205 0205 4AFC ---C---q  PSHR R0          4711
RD a=$4AFC d=0270 CP-1610          (PC = $4AFC) t=4711
WR a=$0205 d=4242 CP-1610          (PC = $4AFC) t=4711
4242 0200 0201 0202 0204 0205 0206 4AFD ---C---q  PSHR R0          4720
RD a=$4AFD d=0270 CP-1610          (PC = $4AFD) t=4720
WR a=$0206 d=4242 CP-1610          (PC = $4AFD) t=4720
4242 0200 0201 0202 0204 0205 0207 4AFE ---C---q  PSHR R0          4729
RD a=$4AFE d=0270 CP-1610          (PC = $4AFE) t=4729
WR a=$0207 d=4242 CP-1610          (PC = $4AFE) t=4729
4242 0200 0201 0202 0204 0205 0208 4AFF ---C---q  JSR  R4,$4CD0         4738
RD a=$4AFF d=0004 CP-1610          (PC = $4AFF) t=4738
RD a=$4B00 d=004C CP-1610          (PC = $4AFF) t=4738
RD a=$4B01 d=00D0 CP-1610          (PC = $4AFF) t=4738
4242 0200 0201 0202 4B02 0205 0208 4CD0 ---C--iq  CLRR R0          4751
0000 0200 0201 0202 4B02 0205 0208 4CD1 -Z-C--iq  CLRR R1          4757
0000 0000 0201 0202 4B02 0205 0208 4CD2 -Z-C--iq  CLRR R2          4763
0000 0000 0000 0202 4B02 0205 0208 4CD3 -Z-C--iq  CLRR R3          4769
0000 0000 0000 0000 4B02 0205 0208 4CD4 -Z-C--iq  CLRR R5          4775
0000 0000 0000 0000 4B02 0000 0208 4CD5 -Z-C--iq  CLRR R6          4781
0000 0000 0000 0000 4B02 0000 0000 4CD6 -Z-C--iq  JR   R4          4788
0000 0000 0000 0000 4B02 0000 0000 4B02 ---C--iq  CLRR R4          4795
RD a=$4B02 d=01E4 CP-1610          (PC = $4B02) t=4795
0000 0000 0000 0000 0000 0000 0000 4B03 -Z-C--iq  MVI  $0200,R0         4801
RD a=$4B03 d=0280 CP-1610          (PC = $4B03) t=4801
RD a=$4B04 d=0200 CP-1610          (PC = $4B03) t=4801
RD a=$0200 d=4242 CP-1610          (PC = $4B03) t=4801
4242 0000 0000 0000 0000 0000 0000 4B05 -Z-C--iq  MVI  $0200,R0         4811
RD a=$4B05 d=0280 CP-1610          (PC = $4B05) t=4811
RD a=$4B06 d=0200 CP-1610          (PC = $4B05) t=4811
RD a=$0200 d=4242 CP-1610          (PC = $4B05) t=4811
4242 0000 0000 0000 0000 0000 0000 4B07 -Z-C--iq  MVI  $0201,R1         4821
RD a=$4B07 d=0281 CP-1610          (PC = $4B07) t=4821
RD a=$4B08 d=0201 CP-1610          (PC = $4B07) t=4821
RD a=$0201 d=4242 CP-1610          (PC = $4B07) t=4821
4242 4242 0000 0000 0000 0000 0000 4B09 -Z-C--iq  MVI  $0202,R2         4831
RD a=$4B09 d=0282 CP-1610          (PC = $4B09) t=4831
RD a=$4B0A d=0202 CP-1610          (PC = $4B09) t=4831
RD a=$0202 d=4242 CP-1610          (PC = $4B09) t=4831
4242 4242 4242 0000 0000 0000 0000 4B0B -Z-C--iq  MVI  $0203,R3         4841
RD a=$4B0B d=0283 CP-1610          (PC = $4B0B) t=4841
RD a=$4B0C d=0203 CP-1610          (PC = $4B0B) t=4841
RD a=$0203 d=4242 CP-1610          (PC = $4B0B) t=4841
4242 4242 4242 4242 0000 0000 0000 4B0D -Z-C--iq  MVI  $0204,R4         4851
RD a=$4B0D d=0284 CP-1610          (PC = $4B0D) t=4851
RD a=$4B0E d=0204 CP-1610          (PC = $4B0D) t=4851
RD a=$0204 d=4242 CP-1610          (PC = $4B0D) t=4851
4242 4242 4242 4242 4242 0000 0000 4B0F -Z-C--iq  MVI  $0205,R5         4861
RD a=$4B0F d=0285 CP-1610          (PC = $4B0F) t=4861
RD a=$4B10 d=0205 CP-1610          (PC = $4B0F) t=4861
RD a=$0205 d=4242 CP-1610          (PC = $4B0F) t=4861
4242 4242 4242 4242 4242 4242 0000 4B11 -Z-C--iq  MVI  $0206,R6         4871
RD a=$4B11 d=0286 CP-1610          (PC = $4B11) t=4871
RD a=$4B12 d=0206 CP-1610          (PC = $4B11) t=4871
RD a=$0206 d=4242 CP-1610          (PC = $4B11) t=4871
4242 4242 4242 4242 4242 4242 4242 4B13 -Z-C--iq  MVII #$4B19,R0         4882
RD a=$4B13 d=02B8 CP-1610          (PC = $4B13) t=4882
RD a=$4B14 d=4B19 CP-1610          (PC = $4B13) t=4882
4B19 4242 4242 4242 4242 4242 4242 4B15 -Z-C--iq  MVO  R0,$0207         4890
RD a=$4B15 d=0240 CP-1610          (PC = $4B15) t=4890
RD a=$4B16 d=0207 CP-1610          (PC = $4B15) t=4890
WR a=$0207 d=4B19 CP-1610          (PC = $4B15) t=4890
4B19 4242 4242 4242 4242 4242 4242 4B17 -Z-C---q  MVI  $0207,R7         4901
RD a=$4B17 d=0287 CP-1610          (PC = $4B17) t=4901
RD a=$4B18 d=0207 CP-1610          (PC = $4B17) t=4901
RD a=$0207 d=4B19 CP-1610          (PC = $4B17) t=4901
4B19 4242 4242 4242 4242 4242 4242 4B19 -Z-C--iq  CLRR R0          4912
RD a=$4B19 d=01C0 CP-1610          (PC = $4B19) t=4912
0000 4242 4242 4242 4242 4242 4242 4B1A -Z-C--iq  RSWD R0          4918
RD a=$4B1A d=0038 CP-1610          (PC = $4B1A) t=4918
0000 4242 4242 4242 4242 4242 4242 4B1B -------q  JSR  R4,$4CD8         4924
RD a=$4B1B d=0004 CP-1610          (PC = $4B1B) t=4924
RD a=$4B1C d=004C CP-1610          (PC = $4B1B) t=4924
RD a=$4B1D d=00D8 CP-1610          (PC = $4B1B) t=4924
0000 4242 4242 4242 4B1E 4242 4242 4CD8 ------iq  CLRR R0          4937
0000 4242 4242 4242 4B1E 4242 4242 4CD9 -Z----iq  MVO  R0,$0200         4943
WR a=$0200 d=0000 CP-1610          (PC = $4CD9) t=4943
0000 4242 4242 4242 4B1E 4242 4242 4CDB -Z-----q  MVO  R0,$0201         4954
WR a=$0201 d=0000 CP-1610          (PC = $4CDB) t=4954
0000 4242 4242 4242 4B1E 4242 4242 4CDD -Z-----q  MVO  R0,$0202         4965
WR a=$0202 d=0000 CP-1610          (PC = $4CDD) t=4965
0000 4242 4242 4242 4B1E 4242 4242 4CDF -Z-----q  MVO  R0,$0203         4976
WR a=$0203 d=0000 CP-1610          (PC = $4CDF) t=4976
0000 4242 4242 4242 4B1E 4242 4242 4CE1 -Z-----q  MVO  R0,$0204         4987
WR a=$0204 d=0000 CP-1610          (PC = $4CE1) t=4987
0000 4242 4242 4242 4B1E 4242 4242 4CE3 -Z-----q  MVO  R0,$0205         4998
WR a=$0205 d=0000 CP-1610          (PC = $4CE3) t=4998
0000 4242 4242 4242 4B1E 4242 4242 4CE5 -Z-----q  MVO  R0,$0206         5009
WR a=$0206 d=0000 CP-1610          (PC = $4CE5) t=5009
0000 4242 4242 4242 4B1E 4242 4242 4CE7 -Z-----q  MVO  R0,$0207         5020
WR a=$0207 d=0000 CP-1610          (PC = $4CE7) t=5020
0000 4242 4242 4242 4B1E 4242 4242 4CE9 -Z-----q  MVO  R0,$0208         5031
WR a=$0208 d=0000 CP-1610          (PC = $4CE9) t=5031
0000 4242 4242 4242 4B1E 4242 4242 4CEB -Z-----q  MVO  R0,$0209         5042
WR a=$0209 d=0000 CP-1610          (PC = $4CEB) t=5042
0000 4242 4242 4242 4B1E 4242 4242 4CED -Z-----q  MVO  R0,$020A         5053
WR a=$020A d=0000 CP-1610          (PC = $4CED) t=5053
0000 4242 4242 4242 4B1E 4242 4242 4CEF -Z-----q  MVO  R0,$020C         5064
WR a=$020C d=0000 CP-1610          (PC = $4CEF) t=5064
0000 4242 4242 4242 4B1E 4242 4242 4CF1 -Z-----q  MVO  R0,$020D         5075
WR a=$020D d=0000 CP-1610          (PC = $4CF1) t=5075
0000 4242 4242 4242 4B1E 4242 4242 4CF3 -Z-----q  MVO  R0,$020E         5086
WR a=$020E d=0000 CP-1610          (PC = $4CF3) t=5086
0000 4242 4242 4242 4B1E 4242 4242 4CF5 -Z-----q  MVO  R0,$020F         5097
WR a=$020F d=0000 CP-1610          (PC = $4CF5) t=5097
0000 4242 4242 4242 4B1E 4242 4242 4CF7 -Z-----q  JR   R4          5108
0000 4242 4242 4242 4B1E 4242 4242 4B1E ------iq  JSR  R4,$4CD0         5115
RD a=$4B1E d=0004 CP-1610          (PC = $4B1E) t=5115
RD a=$4B1F d=004C CP-1610          (PC = $4B1E) t=5115
RD a=$4B20 d=00D0 CP-1610          (PC = $4B1E) t=5115
0000 4242 4242 4242 4B21 4242 4242 4CD0 ------iq  CLRR R0          5128
0000 4242 4242 4242 4B21 4242 4242 4CD1 -Z----iq  CLRR R1          5134
0000 0000 4242 4242 4B21 4242 4242 4CD2 -Z----iq  CLRR R2          5140
0000 0000 0000 4242 4B21 4242 4242 4CD3 -Z----iq  CLRR R3          5146
0000 0000 0000 0000 4B21 4242 4242 4CD4 -Z----iq  CLRR R5          5152
0000 0000 0000 0000 4B21 0000 4242 4CD5 -Z----iq  CLRR R6          5158
0000 0000 0000 0000 4B21 0000 0000 4CD6 -Z----iq  JR   R4          5165
0000 0000 0000 0000 4B21 0000 0000 4B21 ------iq  CLRR R4          5172
RD a=$4B21 d=01E4 CP-1610          (PC = $4B21) t=5172
0000 0000 0000 0000 0000 0000 0000 4B22 -Z----iq  MVII #$4B31,R0         5178
RD a=$4B22 d=02B8 CP-1610          (PC = $4B22) t=5178
RD a=$4B23 d=4B31 CP-1610          (PC = $4B22) t=5178
4B31 0000 0000 0000 0000 0000 0000 4B24 -Z----iq  MVO  R0,$0200         5186
RD a=$4B24 d=0240 CP-1610          (PC = $4B24) t=5186
RD a=$4B25 d=0200 CP-1610          (PC = $4B24) t=5186
WR a=$0200 d=4B31 CP-1610          (PC = $4B24) t=5186
4B31 0000 0000 0000 0000 0000 0000 4B26 -Z-----q  MVII #$0200,R1         5197
RD a=$4B26 d=02B9 CP-1610          (PC = $4B26) t=5197
RD a=$4B27 d=0200 CP-1610          (PC = $4B26) t=5197
4B31 0200 0000 0000 0000 0000 0000 4B28 -Z----iq  CLRR R0          5205
RD a=$4B28 d=01C0 CP-1610          (PC = $4B28) t=5205
0000 0200 0000 0000 0000 0000 0000 4B29 -Z----iq  MVI@ R1,R0         5211
RD a=$4B29 d=0288 CP-1610          (PC = $4B29) t=5211
RD a=$0200 d=4B31 CP-1610          (PC = $4B29) t=5211
4B31 0200 0000 0000 0000 0000 0000 4B2A -Z----iq  MVI@ R1,R2         5219
RD a=$4B2A d=028A CP-1610          (PC = $4B2A) t=5219
RD a=$0200 d=4B31 CP-1610          (PC = $4B2A) t=5219
4B31 0200 4B31 0000 0000 0000 0000 4B2B -Z----iq  MVI@ R1,R3         5227
RD a=$4B2B d=028B CP-1610          (PC = $4B2B) t=5227
RD a=$0200 d=4B31 CP-1610          (PC = $4B2B) t=5227
4B31 0200 4B31 4B31 0000 0000 0000 4B2C -Z----iq  MVI@ R1,R4         5235
RD a=$4B2C d=028C CP-1610          (PC = $4B2C) t=5235
RD a=$0200 d=4B31 CP-1610          (PC = $4B2C) t=5235
4B31 0200 4B31 4B31 4B31 0000 0000 4B2D -Z----iq  MVI@ R1,R5         5243
RD a=$4B2D d=028D CP-1610          (PC = $4B2D) t=5243
RD a=$0200 d=4B31 CP-1610          (PC = $4B2D) t=5243
4B31 0200 4B31 4B31 4B31 4B31 0000 4B2E -Z----iq  MVI@ R1,R6         5251
RD a=$4B2E d=028E CP-1610          (PC = $4B2E) t=5251
RD a=$0200 d=4B31 CP-1610          (PC = $4B2E) t=5251
4B31 0200 4B31 4B31 4B31 4B31 4B31 4B2F -Z----iq  MVI@ R1,R7         5259
RD a=$4B2F d=028F CP-1610          (PC = $4B2F) t=5259
RD a=$0200 d=4B31 CP-1610          (PC = $4B2F) t=5259
4B31 0200 4B31 4B31 4B31 4B31 4B31 4B31 -Z----iq  MVI@ R1,R1         5267
RD a=$4B31 d=0289 CP-1610          (PC = $4B31) t=5267
RD a=$0200 d=4B31 CP-1610          (PC = $4B31) t=5267
4B31 4B31 4B31 4B31 4B31 4B31 4B31 4B32 -Z----iq  INCR R1          5275
RD a=$4B32 d=0009 CP-1610          (PC = $4B32) t=5275
4B31 4B32 4B31 4B31 4B31 4B31 4B31 4B33 ------iq  MVII #$0002,R0         5281
RD a=$4B33 d=02B8 CP-1610          (PC = $4B33) t=5281
RD a=$4B34 d=0002 CP-1610          (PC = $4B33) t=5281
0002 4B32 4B31 4B31 4B31 4B31 4B31 4B35 ------iq  MVO  R0,$0200         5289
RD a=$4B35 d=0240 CP-1610          (PC = $4B35) t=5289
RD a=$4B36 d=0200 CP-1610          (PC = $4B35) t=5289
WR a=$0200 d=0002 CP-1610          (PC = $4B35) t=5289
0002 4B32 4B31 4B31 4B31 4B31 4B31 4B37 -------q  ADD  $0200,R1         5300
RD a=$4B37 d=02C1 CP-1610          (PC = $4B37) t=5300
RD a=$4B38 d=0200 CP-1610          (PC = $4B37) t=5300
RD a=$0200 d=0002 CP-1610          (PC = $4B37) t=5300
0002 4B34 4B31 4B31 4B31 4B31 4B31 4B39 ------iq  CLRR R1          5310
RD a=$4B39 d=01C9 CP-1610          (PC = $4B39) t=5310
0002 0000 4B31 4B31 4B31 4B31 4B31 4B3A -Z----iq  CLRR R0          5316
RD a=$4B3A d=01C0 CP-1610          (PC = $4B3A) t=5316
0000 0000 4B31 4B31 4B31 4B31 4B31 4B3B -Z----iq  RSWD R0          5322
RD a=$4B3B d=0038 CP-1610          (PC = $4B3B) t=5322
0000 0000 4B31 4B31 4B31 4B31 4B31 4B3C -------q  MVO  R0,$0200         5328
RD a=$4B3C d=0240 CP-1610          (PC = $4B3C) t=5328
RD a=$4B3D d=0200 CP-1610          (PC = $4B3C) t=5328
WR a=$0200 d=0000 CP-1610          (PC = $4B3C) t=5328
0000 0000 4B31 4B31 4B31 4B31 4B31 4B3E -------q  ADD  $0200,R1         5339
RD a=$4B3E d=02C1 CP-1610          (PC = $4B3E) t=5339
RD a=$4B3F d=0200 CP-1610          (PC = $4B3E) t=5339
RD a=$0200 d=0000 CP-1610          (PC = $4B3E) t=5339
0000 0000 4B31 4B31 4B31 4B31 4B31 4B40 -Z----iq  MVII #$7FFF,R1         5349
RD a=$4B40 d=02B9 CP-1610          (PC = $4B40) t=5349
RD a=$4B41 d=7FFF CP-1610          (PC = $4B40) t=5349
0000 7FFF 4B31 4B31 4B31 4B31 4B31 4B42 -Z----iq  CLRR R0          5357
RD a=$4B42 d=01C0 CP-1610          (PC = $4B42) t=5357
0000 7FFF 4B31 4B31 4B31 4B31 4B31 4B43 -Z----iq  RSWD R0          5363
RD a=$4B43 d=0038 CP-1610          (PC = $4B43) t=5363
0000 7FFF 4B31 4B31 4B31 4B31 4B31 4B44 -------q  INCR R0          5369
RD a=$4B44 d=0008 CP-1610          (PC = $4B44) t=5369
0001 7FFF 4B31 4B31 4B31 4B31 4B31 4B45 ------iq  MVO  R0,$0200         5375
RD a=$4B45 d=0240 CP-1610          (PC = $4B45) t=5375
RD a=$4B46 d=0200 CP-1610          (PC = $4B45) t=5375
WR a=$0200 d=0001 CP-1610          (PC = $4B45) t=5375
0001 7FFF 4B31 4B31 4B31 4B31 4B31 4B47 -------q  ADD  $0200,R1         5386
RD a=$4B47 d=02C1 CP-1610          (PC = $4B47) t=5386
RD a=$4B48 d=0200 CP-1610          (PC = $4B47) t=5386
RD a=$0200 d=0001 CP-1610          (PC = $4B47) t=5386
0001 8000 4B31 4B31 4B31 4B31 4B31 4B49 S-O---iq  MVII #$FFFF,R1         5396
RD a=$4B49 d=02B9 CP-1610          (PC = $4B49) t=5396
RD a=$4B4A d=FFFF CP-1610          (PC = $4B49) t=5396
0001 FFFF 4B31 4B31 4B31 4B31 4B31 4B4B S-O---iq  CLRR R0          5404
RD a=$4B4B d=01C0 CP-1610          (PC = $4B4B) t=5404
0000 FFFF 4B31 4B31 4B31 4B31 4B31 4B4C -ZO---iq  RSWD R0          5410
RD a=$4B4C d=0038 CP-1610          (PC = $4B4C) t=5410
0000 FFFF 4B31 4B31 4B31 4B31 4B31 4B4D -------q  INCR R0          5416
RD a=$4B4D d=0008 CP-1610          (PC = $4B4D) t=5416
0001 FFFF 4B31 4B31 4B31 4B31 4B31 4B4E ------iq  MVO  R0,$0200         5422
RD a=$4B4E d=0240 CP-1610          (PC = $4B4E) t=5422
RD a=$4B4F d=0200 CP-1610          (PC = $4B4E) t=5422
WR a=$0200 d=0001 CP-1610          (PC = $4B4E) t=5422
0001 FFFF 4B31 4B31 4B31 4B31 4B31 4B50 -------q  ADD  $0200,R1         5433
RD a=$4B50 d=02C1 CP-1610          (PC = $4B50) t=5433
RD a=$4B51 d=0200 CP-1610          (PC = $4B50) t=5433
RD a=$0200 d=0001 CP-1610          (PC = $4B50) t=5433
0001 0000 4B31 4B31 4B31 4B31 4B31 4B52 -Z-C--iq  CLRR R1          5443
RD a=$4B52 d=01C9 CP-1610          (PC = $4B52) t=5443
0001 0000 4B31 4B31 4B31 4B31 4B31 4B53 -Z-C--iq  RSWD R1          5449
RD a=$4B53 d=0039 CP-1610          (PC = $4B53) t=5449
0001 0000 4B31 4B31 4B31 4B31 4B31 4B54 -------q  INCR R0          5455
RD a=$4B54 d=0008 CP-1610          (PC = $4B54) t=5455
0002 0000 4B31 4B31 4B31 4B31 4B31 4B55 ------iq  MVII #$0002,R1         5461
RD a=$4B55 d=02B9 CP-1610          (PC = $4B55) t=5461
RD a=$4B56 d=0002 CP-1610          (PC = $4B55) t=5461
0002 0002 4B31 4B31 4B31 4B31 4B31 4B57 ------iq  MVO  R1,$0200         5469
RD a=$4B57 d=0241 CP-1610          (PC = $4B57) t=5469
RD a=$4B58 d=0200 CP-1610          (PC = $4B57) t=5469
WR a=$0200 d=0002 CP-1610          (PC = $4B57) t=5469
0002 0002 4B31 4B31 4B31 4B31 4B31 4B59 -------q  MVII #$0200,R1         5480
RD a=$4B59 d=02B9 CP-1610          (PC = $4B59) t=5480
RD a=$4B5A d=0200 CP-1610          (PC = $4B59) t=5480
0002 0200 4B31 4B31 4B31 4B31 4B31 4B5B ------iq  ADD@ R1,R0         5488
RD a=$4B5B d=02C8 CP-1610          (PC = $4B5B) t=5488
RD a=$0200 d=0002 CP-1610          (PC = $4B5B) t=5488
0004 0200 4B31 4B31 4B31 4B31 4B31 4B5C ------iq  CLRR R0          5496
RD a=$4B5C d=01C0 CP-1610          (PC = $4B5C) t=5496
0000 0200 4B31 4B31 4B31 4B31 4B31 4B5D -Z----iq  CLRR R1          5502
RD a=$4B5D d=01C9 CP-1610          (PC = $4B5D) t=5502
0000 0000 4B31 4B31 4B31 4B31 4B31 4B5E -Z----iq  RSWD R1          5508
RD a=$4B5E d=0039 CP-1610          (PC = $4B5E) t=5508
0000 0000 4B31 4B31 4B31 4B31 4B31 4B5F -------q  MVO  R1,$0200         5514
RD a=$4B5F d=0241 CP-1610          (PC = $4B5F) t=5514
RD a=$4B60 d=0200 CP-1610          (PC = $4B5F) t=5514
WR a=$0200 d=0000 CP-1610          (PC = $4B5F) t=5514
0000 0000 4B31 4B31 4B31 4B31 4B31 4B61 -------q  MVII #$0200,R1         5525
RD a=$4B61 d=02B9 CP-1610          (PC = $4B61) t=5525
RD a=$4B62 d=0200 CP-1610          (PC = $4B61) t=5525
0000 0200 4B31 4B31 4B31 4B31 4B31 4B63 ------iq  ADD@ R1,R0         5533
RD a=$4B63 d=02C8 CP-1610          (PC = $4B63) t=5533
RD a=$0200 d=0000 CP-1610          (PC = $4B63) t=5533
0000 0200 4B31 4B31 4B31 4B31 4B31 4B64 -Z----iq  MVII #$7FFF,R2         5541
RD a=$4B64 d=02BA CP-1610          (PC = $4B64) t=5541
RD a=$4B65 d=7FFF CP-1610          (PC = $4B64) t=5541
0000 0200 7FFF 4B31 4B31 4B31 4B31 4B66 -Z----iq  MVO  R2,$0200         5549
RD a=$4B66 d=0242 CP-1610          (PC = $4B66) t=5549
RD a=$4B67 d=0200 CP-1610          (PC = $4B66) t=5549
WR a=$0200 d=7FFF CP-1610          (PC = $4B66) t=5549
0000 0200 7FFF 4B31 4B31 4B31 4B31 4B68 -Z-----q  CLRR R0          5560
RD a=$4B68 d=01C0 CP-1610          (PC = $4B68) t=5560
0000 0200 7FFF 4B31 4B31 4B31 4B31 4B69 -Z----iq  INCR R0          5566
RD a=$4B69 d=0008 CP-1610          (PC = $4B69) t=5566
0001 0200 7FFF 4B31 4B31 4B31 4B31 4B6A ------iq  CLRR R2          5572
RD a=$4B6A d=01D2 CP-1610          (PC = $4B6A) t=5572
0001 0200 0000 4B31 4B31 4B31 4B31 4B6B -Z----iq  RSWD R2          5578
RD a=$4B6B d=003A CP-1610          (PC = $4B6B) t=5578
0001 0200 0000 4B31 4B31 4B31 4B31 4B6C -------q  MVII #$0200,R1         5584
RD a=$4B6C d=02B9 CP-1610          (PC = $4B6C) t=5584
RD a=$4B6D d=0200 CP-1610          (PC = $4B6C) t=5584
0001 0200 0000 4B31 4B31 4B31 4B31 4B6E ------iq  ADD@ R1,R0         5592
RD a=$4B6E d=02C8 CP-1610          (PC = $4B6E) t=5592
RD a=$0200 d=7FFF CP-1610          (PC = $4B6E) t=5592
8000 0200 0000 4B31 4B31 4B31 4B31 4B6F S-O---iq  MVII #$FFFF,R2         5600
RD a=$4B6F d=02BA CP-1610          (PC = $4B6F) t=5600
RD a=$4B70 d=FFFF CP-1610          (PC = $4B6F) t=5600
8000 0200 FFFF 4B31 4B31 4B31 4B31 4B71 S-O---iq  MVO  R2,$0200         5608
RD a=$4B71 d=0242 CP-1610          (PC = $4B71) t=5608
RD a=$4B72 d=0200 CP-1610          (PC = $4B71) t=5608
WR a=$0200 d=FFFF CP-1610          (PC = $4B71) t=5608
8000 0200 FFFF 4B31 4B31 4B31 4B31 4B73 S-O----q  CLRR R0          5619
RD a=$4B73 d=01C0 CP-1610          (PC = $4B73) t=5619
0000 0200 FFFF 4B31 4B31 4B31 4B31 4B74 -ZO---iq  INCR R0          5625
RD a=$4B74 d=0008 CP-1610          (PC = $4B74) t=5625
0001 0200 FFFF 4B31 4B31 4B31 4B31 4B75 --O---iq  CLRR R2          5631
RD a=$4B75 d=01D2 CP-1610          (PC = $4B75) t=5631
0001 0200 0000 4B31 4B31 4B31 4B31 4B76 -ZO---iq  RSWD R2          5637
RD a=$4B76 d=003A CP-1610          (PC = $4B76) t=5637
0001 0200 0000 4B31 4B31 4B31 4B31 4B77 -------q  MVII #$0200,R1         5643
RD a=$4B77 d=02B9 CP-1610          (PC = $4B77) t=5643
RD a=$4B78 d=0200 CP-1610          (PC = $4B77) t=5643
0001 0200 0000 4B31 4B31 4B31 4B31 4B79 ------iq  ADD@ R1,R0         5651
RD a=$4B79 d=02C8 CP-1610          (PC = $4B79) t=5651
RD a=$0200 d=FFFF CP-1610          (PC = $4B79) t=5651
0000 0200 0000 4B31 4B31 4B31 4B31 4B7A -Z-C--iq  CLRR R2          5659
RD a=$4B7A d=01D2 CP-1610          (PC = $4B7A) t=5659
0000 0200 0000 4B31 4B31 4B31 4B31 4B7B -Z-C--iq  RSWD R2          5665
RD a=$4B7B d=003A CP-1610          (PC = $4B7B) t=5665
0000 0200 0000 4B31 4B31 4B31 4B31 4B7C -------q  MVII #$0002,R1         5671
RD a=$4B7C d=02B9 CP-1610          (PC = $4B7C) t=5671
RD a=$4B7D d=0002 CP-1610          (PC = $4B7C) t=5671
0000 0002 0000 4B31 4B31 4B31 4B31 4B7E ------iq  ADDI #$0001,R1         5679
RD a=$4B7E d=02F9 CP-1610          (PC = $4B7E) t=5679
RD a=$4B7F d=0001 CP-1610          (PC = $4B7E) t=5679
0000 0003 0000 4B31 4B31 4B31 4B31 4B80 ------iq  CLRR R2          5687
RD a=$4B80 d=01D2 CP-1610          (PC = $4B80) t=5687
0000 0003 0000 4B31 4B31 4B31 4B31 4B81 -Z----iq  RSWD R2          5693
RD a=$4B81 d=003A CP-1610          (PC = $4B81) t=5693
0000 0003 0000 4B31 4B31 4B31 4B31 4B82 --------  MVII #$0000,R1         5699
RD a=$4B82 d=02B9 CP-1610          (PC = $4B82) t=5699
RD a=$4B83 d=0000 CP-1610          (PC = $4B82) t=5699
0000 0000 0000 4B31 4B31 4B31 4B31 4B84 ------i-  ADDI #$0000,R1         5707
RD a=$4B84 d=02F9 CP-1610          (PC = $4B84) t=5707
RD a=$4B85 d=0000 CP-1610          (PC = $4B84) t=5707
0000 0000 0000 4B31 4B31 4B31 4B31 4B86 -Z----i-  CLRR R2          5715
RD a=$4B86 d=01D2 CP-1610          (PC = $4B86) t=5715
0000 0000 0000 4B31 4B31 4B31 4B31 4B87 -Z----i-  RSWD R2          5721
RD a=$4B87 d=003A CP-1610          (PC = $4B87) t=5721
0000 0000 0000 4B31 4B31 4B31 4B31 4B88 --------  MVII #$7FFF,R1         5727
RD a=$4B88 d=02B9 CP-1610          (PC = $4B88) t=5727
RD a=$4B89 d=7FFF CP-1610          (PC = $4B88) t=5727
0000 7FFF 0000 4B31 4B31 4B31 4B31 4B8A ------i-  ADDI #$0001,R1         5735
RD a=$4B8A d=02F9 CP-1610          (PC = $4B8A) t=5735
RD a=$4B8B d=0001 CP-1610          (PC = $4B8A) t=5735
0000 8000 0000 4B31 4B31 4B31 4B31 4B8C S-O---i-  CLRR R2          5743
RD a=$4B8C d=01D2 CP-1610          (PC = $4B8C) t=5743
0000 8000 0000 4B31 4B31 4B31 4B31 4B8D -ZO---i-  RSWD R2          5749
RD a=$4B8D d=003A CP-1610          (PC = $4B8D) t=5749
0000 8000 0000 4B31 4B31 4B31 4B31 4B8E --------  MVII #$FFFF,R1         5755
RD a=$4B8E d=02B9 CP-1610          (PC = $4B8E) t=5755
RD a=$4B8F d=FFFF CP-1610          (PC = $4B8E) t=5755
0000 FFFF 0000 4B31 4B31 4B31 4B31 4B90 ------i-  ADDI #$0001,R1         5763
RD a=$4B90 d=02F9 CP-1610          (PC = $4B90) t=5763
RD a=$4B91 d=0001 CP-1610          (PC = $4B90) t=5763
0000 0000 0000 4B31 4B31 4B31 4B31 4B92 -Z-C--i-  CLRR R0          5771
RD a=$4B92 d=01C0 CP-1610          (PC = $4B92) t=5771
0000 0000 0000 4B31 4B31 4B31 4B31 4B93 -Z-C--i-  MVO  R0,$0200         5777
RD a=$4B93 d=0240 CP-1610          (PC = $4B93) t=5777
RD a=$4B94 d=0200 CP-1610          (PC = $4B93) t=5777
WR a=$0200 d=0000 CP-1610          (PC = $4B93) t=5777
0000 0000 0000 4B31 4B31 4B31 4B31 4B95 -Z-C----  CLRR R1          5788
RD a=$4B95 d=01C9 CP-1610          (PC = $4B95) t=5788
0000 0000 0000 4B31 4B31 4B31 4B31 4B96 -Z-C--i-  RSWD R1          5794
RD a=$4B96 d=0039 CP-1610          (PC = $4B96) t=5794
0000 0000 0000 4B31 4B31 4B31 4B31 4B97 --------  SUB  $0200,R1         5800
RD a=$4B97 d=0301 CP-1610          (PC = $4B97) t=5800
RD a=$4B98 d=0200 CP-1610          (PC = $4B97) t=5800
RD a=$0200 d=0000 CP-1610          (PC = $4B97) t=5800
0000 0000 0000 4B31 4B31 4B31 4B31 4B99 -Z-C--i-  MVII #$0002,R0         5810
RD a=$4B99 d=02B8 CP-1610          (PC = $4B99) t=5810
RD a=$4B9A d=0002 CP-1610          (PC = $4B99) t=5810
0002 0000 0000 4B31 4B31 4B31 4B31 4B9B -Z-C--i-  MVO  R0,$0200         5818
RD a=$4B9B d=0240 CP-1610          (PC = $4B9B) t=5818
RD a=$4B9C d=0200 CP-1610          (PC = $4B9B) t=5818
WR a=$0200 d=0002 CP-1610          (PC = $4B9B) t=5818
0002 0000 0000 4B31 4B31 4B31 4B31 4B9D -Z-C----  MVII #$0044,R1         5829
RD a=$4B9D d=02B9 CP-1610          (PC = $4B9D) t=5829
RD a=$4B9E d=0044 CP-1610          (PC = $4B9D) t=5829
0002 0044 0000 4B31 4B31 4B31 4B31 4B9F -Z-C--i-  CLRR R2          5837
RD a=$4B9F d=01D2 CP-1610          (PC = $4B9F) t=5837
0002 0044 0000 4B31 4B31 4B31 4B31 4BA0 -Z-C--i-  RSWD R2          5843
RD a=$4BA0 d=003A CP-1610          (PC = $4BA0) t=5843
0002 0044 0000 4B31 4B31 4B31 4B31 4BA1 --------  SUB  $0200,R1         5849
RD a=$4BA1 d=0301 CP-1610          (PC = $4BA1) t=5849
RD a=$4BA2 d=0200 CP-1610          (PC = $4BA1) t=5849
RD a=$0200 d=0002 CP-1610          (PC = $4BA1) t=5849
0002 0042 0000 4B31 4B31 4B31 4B31 4BA3 ---C--i-  MVII #$0044,R0         5859
RD a=$4BA3 d=02B8 CP-1610          (PC = $4BA3) t=5859
RD a=$4BA4 d=0044 CP-1610          (PC = $4BA3) t=5859
0044 0042 0000 4B31 4B31 4B31 4B31 4BA5 ---C--i-  MVO  R0,$0200         5867
RD a=$4BA5 d=0240 CP-1610          (PC = $4BA5) t=5867
RD a=$4BA6 d=0200 CP-1610          (PC = $4BA5) t=5867
WR a=$0200 d=0044 CP-1610          (PC = $4BA5) t=5867
0044 0042 0000 4B31 4B31 4B31 4B31 4BA7 ---C----  MVII #$0002,R1         5878
RD a=$4BA7 d=02B9 CP-1610          (PC = $4BA7) t=5878
RD a=$4BA8 d=0002 CP-1610          (PC = $4BA7) t=5878
0044 0002 0000 4B31 4B31 4B31 4B31 4BA9 ---C--i-  CLRR R2          5886
RD a=$4BA9 d=01D2 CP-1610          (PC = $4BA9) t=5886
0044 0002 0000 4B31 4B31 4B31 4B31 4BAA -Z-C--i-  RSWD R2          5892
RD a=$4BAA d=003A CP-1610          (PC = $4BAA) t=5892
0044 0002 0000 4B31 4B31 4B31 4B31 4BAB --------  SUB  $0200,R1         5898
RD a=$4BAB d=0301 CP-1610          (PC = $4BAB) t=5898
RD a=$4BAC d=0200 CP-1610          (PC = $4BAB) t=5898
RD a=$0200 d=0044 CP-1610          (PC = $4BAB) t=5898
0044 FFBE 0000 4B31 4B31 4B31 4B31 4BAD S-----i-  MVII #$0002,R0         5908
RD a=$4BAD d=02B8 CP-1610          (PC = $4BAD) t=5908
RD a=$4BAE d=0002 CP-1610          (PC = $4BAD) t=5908
0002 FFBE 0000 4B31 4B31 4B31 4B31 4BAF S-----i-  MVO  R0,$0200         5916
RD a=$4BAF d=0240 CP-1610          (PC = $4BAF) t=5916
RD a=$4BB0 d=0200 CP-1610          (PC = $4BAF) t=5916
WR a=$0200 d=0002 CP-1610          (PC = $4BAF) t=5916
0002 FFBE 0000 4B31 4B31 4B31 4B31 4BB1 S-------  MVII #$8001,R1         5927
RD a=$4BB1 d=02B9 CP-1610          (PC = $4BB1) t=5927
RD a=$4BB2 d=8001 CP-1610          (PC = $4BB1) t=5927
0002 8001 0000 4B31 4B31 4B31 4B31 4BB3 S-----i-  CLRR R0          5935
RD a=$4BB3 d=01C0 CP-1610          (PC = $4BB3) t=5935
0000 8001 0000 4B31 4B31 4B31 4B31 4BB4 -Z----i-  RSWD R0          5941
RD a=$4BB4 d=0038 CP-1610          (PC = $4BB4) t=5941
0000 8001 0000 4B31 4B31 4B31 4B31 4BB5 --------  SUB  $0200,R1         5947
RD a=$4BB5 d=0301 CP-1610          (PC = $4BB5) t=5947
RD a=$4BB6 d=0200 CP-1610          (PC = $4BB5) t=5947
RD a=$0200 d=0002 CP-1610          (PC = $4BB5) t=5947
0000 7FFF 0000 4B31 4B31 4B31 4B31 4BB7 --OC--i-  CLRR R1          5957
RD a=$4BB7 d=01C9 CP-1610          (PC = $4BB7) t=5957
0000 0000 0000 4B31 4B31 4B31 4B31 4BB8 -ZOC--i-  MVO  R1,$0200         5963
RD a=$4BB8 d=0241 CP-1610          (PC = $4BB8) t=5963
RD a=$4BB9 d=0200 CP-1610          (PC = $4BB8) t=5963
WR a=$0200 d=0000 CP-1610          (PC = $4BB8) t=5963
0000 0000 0000 4B31 4B31 4B31 4B31 4BBA -ZOC----  MVII #$0200,R1         5974
RD a=$4BBA d=02B9 CP-1610          (PC = $4BBA) t=5974
RD a=$4BBB d=0200 CP-1610          (PC = $4BBA) t=5974
0000 0200 0000 4B31 4B31 4B31 4B31 4BBC -ZOC--i-  CLRR R0          5982
RD a=$4BBC d=01C0 CP-1610          (PC = $4BBC) t=5982
0000 0200 0000 4B31 4B31 4B31 4B31 4BBD -ZOC--i-  RSWD R0          5988
RD a=$4BBD d=0038 CP-1610          (PC = $4BBD) t=5988
0000 0200 0000 4B31 4B31 4B31 4B31 4BBE --------  SUB@ R1,R0         5994
RD a=$4BBE d=0308 CP-1610          (PC = $4BBE) t=5994
RD a=$0200 d=0000 CP-1610          (PC = $4BBE) t=5994
0000 0200 0000 4B31 4B31 4B31 4B31 4BBF -Z-C--i-  MVII #$0002,R1         6002
RD a=$4BBF d=02B9 CP-1610          (PC = $4BBF) t=6002
RD a=$4BC0 d=0002 CP-1610          (PC = $4BBF) t=6002
0000 0002 0000 4B31 4B31 4B31 4B31 4BC1 -Z-C--i-  MVO  R1,$0200         6010
RD a=$4BC1 d=0241 CP-1610          (PC = $4BC1) t=6010
RD a=$4BC2 d=0200 CP-1610          (PC = $4BC1) t=6010
WR a=$0200 d=0002 CP-1610          (PC = $4BC1) t=6010
0000 0002 0000 4B31 4B31 4B31 4B31 4BC3 -Z-C----  MVII #$0200,R1         6021
RD a=$4BC3 d=02B9 CP-1610          (PC = $4BC3) t=6021
RD a=$4BC4 d=0200 CP-1610          (PC = $4BC3) t=6021
0000 0200 0000 4B31 4B31 4B31 4B31 4BC5 -Z-C--i-  MVII #$0044,R0         6029
RD a=$4BC5 d=02B8 CP-1610          (PC = $4BC5) t=6029
RD a=$4BC6 d=0044 CP-1610          (PC = $4BC5) t=6029
0044 0200 0000 4B31 4B31 4B31 4B31 4BC7 -Z-C--i-  CLRR R2          6037
RD a=$4BC7 d=01D2 CP-1610          (PC = $4BC7) t=6037
0044 0200 0000 4B31 4B31 4B31 4B31 4BC8 -Z-C--i-  RSWD R2          6043
RD a=$4BC8 d=003A CP-1610          (PC = $4BC8) t=6043
0044 0200 0000 4B31 4B31 4B31 4B31 4BC9 --------  SUB@ R1,R0         6049
RD a=$4BC9 d=0308 CP-1610          (PC = $4BC9) t=6049
RD a=$0200 d=0002 CP-1610          (PC = $4BC9) t=6049
0042 0200 0000 4B31 4B31 4B31 4B31 4BCA ---C--i-  MVII #$0044,R1         6057
RD a=$4BCA d=02B9 CP-1610          (PC = $4BCA) t=6057
RD a=$4BCB d=0044 CP-1610          (PC = $4BCA) t=6057
0042 0044 0000 4B31 4B31 4B31 4B31 4BCC ---C--i-  MVO  R1,$0200         6065
RD a=$4BCC d=0241 CP-1610          (PC = $4BCC) t=6065
RD a=$4BCD d=0200 CP-1610          (PC = $4BCC) t=6065
WR a=$0200 d=0044 CP-1610          (PC = $4BCC) t=6065
0042 0044 0000 4B31 4B31 4B31 4B31 4BCE ---C----  MVII #$0200,R1         6076
RD a=$4BCE d=02B9 CP-1610          (PC = $4BCE) t=6076
RD a=$4BCF d=0200 CP-1610          (PC = $4BCE) t=6076
0042 0200 0000 4B31 4B31 4B31 4B31 4BD0 ---C--i-  MVII #$0002,R0         6084
RD a=$4BD0 d=02B8 CP-1610          (PC = $4BD0) t=6084
RD a=$4BD1 d=0002 CP-1610          (PC = $4BD0) t=6084
0002 0200 0000 4B31 4B31 4B31 4B31 4BD2 ---C--i-  CLRR R2          6092
RD a=$4BD2 d=01D2 CP-1610          (PC = $4BD2) t=6092
0002 0200 0000 4B31 4B31 4B31 4B31 4BD3 -Z-C--i-  RSWD R2          6098
RD a=$4BD3 d=003A CP-1610          (PC = $4BD3) t=6098
0002 0200 0000 4B31 4B31 4B31 4B31 4BD4 --------  SUB@ R1,R0         6104
RD a=$4BD4 d=0308 CP-1610          (PC = $4BD4) t=6104
RD a=$0200 d=0044 CP-1610          (PC = $4BD4) t=6104
FFBE 0200 0000 4B31 4B31 4B31 4B31 4BD5 S-----i-  MVII #$0002,R1         6112
RD a=$4BD5 d=02B9 CP-1610          (PC = $4BD5) t=6112
RD a=$4BD6 d=0002 CP-1610          (PC = $4BD5) t=6112
FFBE 0002 0000 4B31 4B31 4B31 4B31 4BD7 S-----i-  MVO  R1,$0200         6120
RD a=$4BD7 d=0241 CP-1610          (PC = $4BD7) t=6120
RD a=$4BD8 d=0200 CP-1610          (PC = $4BD7) t=6120
WR a=$0200 d=0002 CP-1610          (PC = $4BD7) t=6120
FFBE 0002 0000 4B31 4B31 4B31 4B31 4BD9 S-------  MVII #$8001,R0         6131
RD a=$4BD9 d=02B8 CP-1610          (PC = $4BD9) t=6131
RD a=$4BDA d=8001 CP-1610          (PC = $4BD9) t=6131
8001 0002 0000 4B31 4B31 4B31 4B31 4BDB S-----i-  MVII #$0200,R1         6139
RD a=$4BDB d=02B9 CP-1610          (PC = $4BDB) t=6139
RD a=$4BDC d=0200 CP-1610          (PC = $4BDB) t=6139
8001 0200 0000 4B31 4B31 4B31 4B31 4BDD S-----i-  CLRR R2          6147
RD a=$4BDD d=01D2 CP-1610          (PC = $4BDD) t=6147
8001 0200 0000 4B31 4B31 4B31 4B31 4BDE -Z----i-  RSWD R2          6153
RD a=$4BDE d=003A CP-1610          (PC = $4BDE) t=6153
8001 0200 0000 4B31 4B31 4B31 4B31 4BDF --------  SUB@ R1,R0         6159
RD a=$4BDF d=0308 CP-1610          (PC = $4BDF) t=6159
RD a=$0200 d=0002 CP-1610          (PC = $4BDF) t=6159
7FFF 0200 0000 4B31 4B31 4B31 4B31 4BE0 --OC--i-  CLRR R1          6167
RD a=$4BE0 d=01C9 CP-1610          (PC = $4BE0) t=6167
7FFF 0000 0000 4B31 4B31 4B31 4B31 4BE1 -ZOC--i-  CLRR R2          6173
RD a=$4BE1 d=01D2 CP-1610          (PC = $4BE1) t=6173
7FFF 0000 0000 4B31 4B31 4B31 4B31 4BE2 -ZOC--i-  RSWD R2          6179
RD a=$4BE2 d=003A CP-1610          (PC = $4BE2) t=6179
7FFF 0000 0000 4B31 4B31 4B31 4B31 4BE3 --------  SUBI #$0000,R1         6185
RD a=$4BE3 d=0339 CP-1610          (PC = $4BE3) t=6185
RD a=$4BE4 d=0000 CP-1610          (PC = $4BE3) t=6185
7FFF 0000 0000 4B31 4B31 4B31 4B31 4BE5 -Z-C--i-  MVII #$0044,R1         6193
RD a=$4BE5 d=02B9 CP-1610          (PC = $4BE5) t=6193
RD a=$4BE6 d=0044 CP-1610          (PC = $4BE5) t=6193
7FFF 0044 0000 4B31 4B31 4B31 4B31 4BE7 -Z-C--i-  CLRR R2          6201
RD a=$4BE7 d=01D2 CP-1610          (PC = $4BE7) t=6201
7FFF 0044 0000 4B31 4B31 4B31 4B31 4BE8 -Z-C--i-  RSWD R2          6207
RD a=$4BE8 d=003A CP-1610          (PC = $4BE8) t=6207
7FFF 0044 0000 4B31 4B31 4B31 4B31 4BE9 --------  SUBI #$0002,R1         6213
RD a=$4BE9 d=0339 CP-1610          (PC = $4BE9) t=6213
RD a=$4BEA d=0002 CP-1610          (PC = $4BE9) t=6213
7FFF 0042 0000 4B31 4B31 4B31 4B31 4BEB ---C--i-  MVII #$0002,R1         6221
RD a=$4BEB d=02B9 CP-1610          (PC = $4BEB) t=6221
RD a=$4BEC d=0002 CP-1610          (PC = $4BEB) t=6221
7FFF 0002 0000 4B31 4B31 4B31 4B31 4BED ---C--i-  CLRR R2          6229
RD a=$4BED d=01D2 CP-1610          (PC = $4BED) t=6229
7FFF 0002 0000 4B31 4B31 4B31 4B31 4BEE -Z-C--i-  RSWD R2          6235
RD a=$4BEE d=003A CP-1610          (PC = $4BEE) t=6235
7FFF 0002 0000 4B31 4B31 4B31 4B31 4BEF --------  SUBI #$0044,R1         6241
RD a=$4BEF d=0339 CP-1610          (PC = $4BEF) t=6241
RD a=$4BF0 d=0044 CP-1610          (PC = $4BEF) t=6241
7FFF FFBE 0000 4B31 4B31 4B31 4B31 4BF1 S-----i-  MVII #$8001,R1         6249
RD a=$4BF1 d=02B9 CP-1610          (PC = $4BF1) t=6249
RD a=$4BF2 d=8001 CP-1610          (PC = $4BF1) t=6249
7FFF 8001 0000 4B31 4B31 4B31 4B31 4BF3 S-----i-  CLRR R2          6257
RD a=$4BF3 d=01D2 CP-1610          (PC = $4BF3) t=6257
7FFF 8001 0000 4B31 4B31 4B31 4B31 4BF4 -Z----i-  RSWD R2          6263
RD a=$4BF4 d=003A CP-1610          (PC = $4BF4) t=6263
7FFF 8001 0000 4B31 4B31 4B31 4B31 4BF5 --------  SUBI #$0002,R1         6269
RD a=$4BF5 d=0339 CP-1610          (PC = $4BF5) t=6269
RD a=$4BF6 d=0002 CP-1610          (PC = $4BF5) t=6269
7FFF 7FFF 0000 4B31 4B31 4B31 4B31 4BF7 --OC--i-  CLRR R0          6277
RD a=$4BF7 d=01C0 CP-1610          (PC = $4BF7) t=6277
0000 7FFF 0000 4B31 4B31 4B31 4B31 4BF8 -ZOC--i-  MVO  R0,$0200         6283
RD a=$4BF8 d=0240 CP-1610          (PC = $4BF8) t=6283
RD a=$4BF9 d=0200 CP-1610          (PC = $4BF8) t=6283
WR a=$0200 d=0000 CP-1610          (PC = $4BF8) t=6283
0000 7FFF 0000 4B31 4B31 4B31 4B31 4BFA -ZOC----  CLRR R1          6294
RD a=$4BFA d=01C9 CP-1610          (PC = $4BFA) t=6294
0000 0000 0000 4B31 4B31 4B31 4B31 4BFB -ZOC--i-  RSWD R1          6300
RD a=$4BFB d=0039 CP-1610          (PC = $4BFB) t=6300
0000 0000 0000 4B31 4B31 4B31 4B31 4BFC --------  CMP  $0200,R1         6306
RD a=$4BFC d=0341 CP-1610          (PC = $4BFC) t=6306
RD a=$4BFD d=0200 CP-1610          (PC = $4BFC) t=6306
RD a=$0200 d=0000 CP-1610          (PC = $4BFC) t=6306
0000 0000 0000 4B31 4B31 4B31 4B31 4BFE -Z-C--i-  MVII #$0002,R0         6316
RD a=$4BFE d=02B8 CP-1610          (PC = $4BFE) t=6316
RD a=$4BFF d=0002 CP-1610          (PC = $4BFE) t=6316
0002 0000 0000 4B31 4B31 4B31 4B31 4C00 -Z-C--i-  MVO  R0,$0200         6324
RD a=$4C00 d=0240 CP-1610          (PC = $4C00) t=6324
RD a=$4C01 d=0200 CP-1610          (PC = $4C00) t=6324
WR a=$0200 d=0002 CP-1610          (PC = $4C00) t=6324
0002 0000 0000 4B31 4B31 4B31 4B31 4C02 -Z-C----  MVII #$0044,R1         6335
RD a=$4C02 d=02B9 CP-1610          (PC = $4C02) t=6335
RD a=$4C03 d=0044 CP-1610          (PC = $4C02) t=6335
0002 0044 0000 4B31 4B31 4B31 4B31 4C04 -Z-C--i-  CLRR R2          6343
RD a=$4C04 d=01D2 CP-1610          (PC = $4C04) t=6343
0002 0044 0000 4B31 4B31 4B31 4B31 4C05 -Z-C--i-  RSWD R2          6349
RD a=$4C05 d=003A CP-1610          (PC = $4C05) t=6349
0002 0044 0000 4B31 4B31 4B31 4B31 4C06 --------  CMP  $0200,R1         6355
RD a=$4C06 d=0341 CP-1610          (PC = $4C06) t=6355
RD a=$4C07 d=0200 CP-1610          (PC = $4C06) t=6355
RD a=$0200 d=0002 CP-1610          (PC = $4C06) t=6355
0002 0044 0000 4B31 4B31 4B31 4B31 4C08 ---C--i-  MVII #$0044,R0         6365
RD a=$4C08 d=02B8 CP-1610          (PC = $4C08) t=6365
RD a=$4C09 d=0044 CP-1610          (PC = $4C08) t=6365
0044 0044 0000 4B31 4B31 4B31 4B31 4C0A ---C--i-  MVO  R0,$0200         6373
RD a=$4C0A d=0240 CP-1610          (PC = $4C0A) t=6373
RD a=$4C0B d=0200 CP-1610          (PC = $4C0A) t=6373
WR a=$0200 d=0044 CP-1610          (PC = $4C0A) t=6373
0044 0044 0000 4B31 4B31 4B31 4B31 4C0C ---C----  MVII #$0002,R1         6384
RD a=$4C0C d=02B9 CP-1610          (PC = $4C0C) t=6384
RD a=$4C0D d=0002 CP-1610          (PC = $4C0C) t=6384
0044 0002 0000 4B31 4B31 4B31 4B31 4C0E ---C--i-  CLRR R2          6392
RD a=$4C0E d=01D2 CP-1610          (PC = $4C0E) t=6392
0044 0002 0000 4B31 4B31 4B31 4B31 4C0F -Z-C--i-  RSWD R2          6398
RD a=$4C0F d=003A CP-1610          (PC = $4C0F) t=6398
0044 0002 0000 4B31 4B31 4B31 4B31 4C10 --------  CMP  $0200,R1         6404
RD a=$4C10 d=0341 CP-1610          (PC = $4C10) t=6404
RD a=$4C11 d=0200 CP-1610          (PC = $4C10) t=6404
RD a=$0200 d=0044 CP-1610          (PC = $4C10) t=6404
0044 0002 0000 4B31 4B31 4B31 4B31 4C12 S-----i-  MVII #$0002,R0         6414
RD a=$4C12 d=02B8 CP-1610          (PC = $4C12) t=6414
RD a=$4C13 d=0002 CP-1610          (PC = $4C12) t=6414
0002 0002 0000 4B31 4B31 4B31 4B31 4C14 S-----i-  MVO  R0,$0200         6422
RD a=$4C14 d=0240 CP-1610          (PC = $4C14) t=6422
RD a=$4C15 d=0200 CP-1610          (PC = $4C14) t=6422
WR a=$0200 d=0002 CP-1610          (PC = $4C14) t=6422
0002 0002 0000 4B31 4B31 4B31 4B31 4C16 S-------  MVII #$8001,R1         6433
RD a=$4C16 d=02B9 CP-1610          (PC = $4C16) t=6433
RD a=$4C17 d=8001 CP-1610          (PC = $4C16) t=6433
0002 8001 0000 4B31 4B31 4B31 4B31 4C18 S-----i-  CLRR R0          6441
RD a=$4C18 d=01C0 CP-1610          (PC = $4C18) t=6441
0000 8001 0000 4B31 4B31 4B31 4B31 4C19 -Z----i-  RSWD R0          6447
RD a=$4C19 d=0038 CP-1610          (PC = $4C19) t=6447
0000 8001 0000 4B31 4B31 4B31 4B31 4C1A --------  CMP  $0200,R1         6453
RD a=$4C1A d=0341 CP-1610          (PC = $4C1A) t=6453
RD a=$4C1B d=0200 CP-1610          (PC = $4C1A) t=6453
RD a=$0200 d=0002 CP-1610          (PC = $4C1A) t=6453
0000 8001 0000 4B31 4B31 4B31 4B31 4C1C --OC--i-  CLRR R1          6463
RD a=$4C1C d=01C9 CP-1610          (PC = $4C1C) t=6463
0000 0000 0000 4B31 4B31 4B31 4B31 4C1D -ZOC--i-  MVO  R1,$0200         6469
RD a=$4C1D d=0241 CP-1610          (PC = $4C1D) t=6469
RD a=$4C1E d=0200 CP-1610          (PC = $4C1D) t=6469
WR a=$0200 d=0000 CP-1610          (PC = $4C1D) t=6469
0000 0000 0000 4B31 4B31 4B31 4B31 4C1F -ZOC----  MVII #$0200,R1         6480
RD a=$4C1F d=02B9 CP-1610          (PC = $4C1F) t=6480
RD a=$4C20 d=0200 CP-1610          (PC = $4C1F) t=6480
0000 0200 0000 4B31 4B31 4B31 4B31 4C21 -ZOC--i-  CLRR R0          6488
RD a=$4C21 d=01C0 CP-1610          (PC = $4C21) t=6488
0000 0200 0000 4B31 4B31 4B31 4B31 4C22 -ZOC--i-  RSWD R0          6494
RD a=$4C22 d=0038 CP-1610          (PC = $4C22) t=6494
0000 0200 0000 4B31 4B31 4B31 4B31 4C23 --------  CMP@ R1,R0         6500
RD a=$4C23 d=0348 CP-1610          (PC = $4C23) t=6500
RD a=$0200 d=0000 CP-1610          (PC = $4C23) t=6500
0000 0200 0000 4B31 4B31 4B31 4B31 4C24 -Z-C--i-  MVII #$0002,R1         6508
RD a=$4C24 d=02B9 CP-1610          (PC = $4C24) t=6508
RD a=$4C25 d=0002 CP-1610          (PC = $4C24) t=6508
0000 0002 0000 4B31 4B31 4B31 4B31 4C26 -Z-C--i-  MVO  R1,$0200         6516
RD a=$4C26 d=0241 CP-1610          (PC = $4C26) t=6516
RD a=$4C27 d=0200 CP-1610          (PC = $4C26) t=6516
WR a=$0200 d=0002 CP-1610          (PC = $4C26) t=6516
0000 0002 0000 4B31 4B31 4B31 4B31 4C28 -Z-C----  MVII #$0200,R1         6527
RD a=$4C28 d=02B9 CP-1610          (PC = $4C28) t=6527
RD a=$4C29 d=0200 CP-1610          (PC = $4C28) t=6527
0000 0200 0000 4B31 4B31 4B31 4B31 4C2A -Z-C--i-  MVII #$0044,R0         6535
RD a=$4C2A d=02B8 CP-1610          (PC = $4C2A) t=6535
RD a=$4C2B d=0044 CP-1610          (PC = $4C2A) t=6535
0044 0200 0000 4B31 4B31 4B31 4B31 4C2C -Z-C--i-  CLRR R2          6543
RD a=$4C2C d=01D2 CP-1610          (PC = $4C2C) t=6543
0044 0200 0000 4B31 4B31 4B31 4B31 4C2D -Z-C--i-  RSWD R2          6549
RD a=$4C2D d=003A CP-1610          (PC = $4C2D) t=6549
0044 0200 0000 4B31 4B31 4B31 4B31 4C2E --------  CMP@ R1,R0         6555
RD a=$4C2E d=0348 CP-1610          (PC = $4C2E) t=6555
RD a=$0200 d=0002 CP-1610          (PC = $4C2E) t=6555
0044 0200 0000 4B31 4B31 4B31 4B31 4C2F ---C--i-  MVII #$0044,R1         6563
RD a=$4C2F d=02B9 CP-1610          (PC = $4C2F) t=6563
RD a=$4C30 d=0044 CP-1610          (PC = $4C2F) t=6563
0044 0044 0000 4B31 4B31 4B31 4B31 4C31 ---C--i-  MVO  R1,$0200         6571
RD a=$4C31 d=0241 CP-1610          (PC = $4C31) t=6571
RD a=$4C32 d=0200 CP-1610          (PC = $4C31) t=6571
WR a=$0200 d=0044 CP-1610          (PC = $4C31) t=6571
0044 0044 0000 4B31 4B31 4B31 4B31 4C33 ---C----  MVII #$0200,R1         6582
RD a=$4C33 d=02B9 CP-1610          (PC = $4C33) t=6582
RD a=$4C34 d=0200 CP-1610          (PC = $4C33) t=6582
0044 0200 0000 4B31 4B31 4B31 4B31 4C35 ---C--i-  MVII #$0002,R0         6590
RD a=$4C35 d=02B8 CP-1610          (PC = $4C35) t=6590
RD a=$4C36 d=0002 CP-1610          (PC = $4C35) t=6590
0002 0200 0000 4B31 4B31 4B31 4B31 4C37 ---C--i-  CLRR R2          6598
RD a=$4C37 d=01D2 CP-1610          (PC = $4C37) t=6598
0002 0200 0000 4B31 4B31 4B31 4B31 4C38 -Z-C--i-  RSWD R2          6604
RD a=$4C38 d=003A CP-1610          (PC = $4C38) t=6604
0002 0200 0000 4B31 4B31 4B31 4B31 4C39 --------  CMP@ R1,R0         6610
RD a=$4C39 d=0348 CP-1610          (PC = $4C39) t=6610
RD a=$0200 d=0044 CP-1610          (PC = $4C39) t=6610
0002 0200 0000 4B31 4B31 4B31 4B31 4C3A S-----i-  MVII #$0002,R1         6618
RD a=$4C3A d=02B9 CP-1610          (PC = $4C3A) t=6618
RD a=$4C3B d=0002 CP-1610          (PC = $4C3A) t=6618
0002 0002 0000 4B31 4B31 4B31 4B31 4C3C S-----i-  MVO  R1,$0200         6626
RD a=$4C3C d=0241 CP-1610          (PC = $4C3C) t=6626
RD a=$4C3D d=0200 CP-1610          (PC = $4C3C) t=6626
WR a=$0200 d=0002 CP-1610          (PC = $4C3C) t=6626
0002 0002 0000 4B31 4B31 4B31 4B31 4C3E S-------  MVII #$8001,R0         6637
RD a=$4C3E d=02B8 CP-1610          (PC = $4C3E) t=6637
RD a=$4C3F d=8001 CP-1610          (PC = $4C3E) t=6637
8001 0002 0000 4B31 4B31 4B31 4B31 4C40 S-----i-  MVII #$0200,R1         6645
RD a=$4C40 d=02B9 CP-1610          (PC = $4C40) t=6645
RD a=$4C41 d=0200 CP-1610          (PC = $4C40) t=6645
8001 0200 0000 4B31 4B31 4B31 4B31 4C42 S-----i-  CLRR R2          6653
RD a=$4C42 d=01D2 CP-1610          (PC = $4C42) t=6653
8001 0200 0000 4B31 4B31 4B31 4B31 4C43 -Z----i-  RSWD R2          6659
RD a=$4C43 d=003A CP-1610          (PC = $4C43) t=6659
8001 0200 0000 4B31 4B31 4B31 4B31 4C44 --------  CMP@ R1,R0         6665
RD a=$4C44 d=0348 CP-1610          (PC = $4C44) t=6665
RD a=$0200 d=0002 CP-1610          (PC = $4C44) t=6665
8001 0200 0000 4B31 4B31 4B31 4B31 4C45 --OC--i-  CLRR R1          6673
RD a=$4C45 d=01C9 CP-1610          (PC = $4C45) t=6673
8001 0000 0000 4B31 4B31 4B31 4B31 4C46 -ZOC--i-  CLRR R2          6679
RD a=$4C46 d=01D2 CP-1610          (PC = $4C46) t=6679
8001 0000 0000 4B31 4B31 4B31 4B31 4C47 -ZOC--i-  RSWD R2          6685
RD a=$4C47 d=003A CP-1610          (PC = $4C47) t=6685
8001 0000 0000 4B31 4B31 4B31 4B31 4C48 --------  CMPI #$0000,R1         6691
RD a=$4C48 d=0379 CP-1610          (PC = $4C48) t=6691
RD a=$4C49 d=0000 CP-1610          (PC = $4C48) t=6691
8001 0000 0000 4B31 4B31 4B31 4B31 4C4A -Z-C--i-  MVII #$0044,R1         6699
RD a=$4C4A d=02B9 CP-1610          (PC = $4C4A) t=6699
RD a=$4C4B d=0044 CP-1610          (PC = $4C4A) t=6699
8001 0044 0000 4B31 4B31 4B31 4B31 4C4C -Z-C--i-  CLRR R2          6707
RD a=$4C4C d=01D2 CP-1610          (PC = $4C4C) t=6707
8001 0044 0000 4B31 4B31 4B31 4B31 4C4D -Z-C--i-  RSWD R2          6713
RD a=$4C4D d=003A CP-1610          (PC = $4C4D) t=6713
8001 0044 0000 4B31 4B31 4B31 4B31 4C4E --------  CMPI #$0002,R1         6719
RD a=$4C4E d=0379 CP-1610          (PC = $4C4E) t=6719
RD a=$4C4F d=0002 CP-1610          (PC = $4C4E) t=6719
8001 0044 0000 4B31 4B31 4B31 4B31 4C50 ---C--i-  MVII #$0002,R1         6727
RD a=$4C50 d=02B9 CP-1610          (PC = $4C50) t=6727
RD a=$4C51 d=0002 CP-1610          (PC = $4C50) t=6727
8001 0002 0000 4B31 4B31 4B31 4B31 4C52 ---C--i-  CLRR R2          6735
RD a=$4C52 d=01D2 CP-1610          (PC = $4C52) t=6735
8001 0002 0000 4B31 4B31 4B31 4B31 4C53 -Z-C--i-  RSWD R2          6741
RD a=$4C53 d=003A CP-1610          (PC = $4C53) t=6741
8001 0002 0000 4B31 4B31 4B31 4B31 4C54 --------  CMPI #$0044,R1         6747
RD a=$4C54 d=0379 CP-1610          (PC = $4C54) t=6747
RD a=$4C55 d=0044 CP-1610          (PC = $4C54) t=6747
8001 0002 0000 4B31 4B31 4B31 4B31 4C56 S-----i-  MVII #$8001,R1         6755
RD a=$4C56 d=02B9 CP-1610          (PC = $4C56) t=6755
RD a=$4C57 d=8001 CP-1610          (PC = $4C56) t=6755
8001 8001 0000 4B31 4B31 4B31 4B31 4C58 S-----i-  CLRR R2          6763
RD a=$4C58 d=01D2 CP-1610          (PC = $4C58) t=6763
8001 8001 0000 4B31 4B31 4B31 4B31 4C59 -Z----i-  RSWD R2          6769
RD a=$4C59 d=003A CP-1610          (PC = $4C59) t=6769
8001 8001 0000 4B31 4B31 4B31 4B31 4C5A --------  CMPI #$0002,R1         6775
RD a=$4C5A d=0379 CP-1610          (PC = $4C5A) t=6775
RD a=$4C5B d=0002 CP-1610          (PC = $4C5A) t=6775
8001 8001 0000 4B31 4B31 4B31 4B31 4C5C --OC--i-  MVII #$FFFF,R0         6783
RD a=$4C5C d=02B8 CP-1610          (PC = $4C5C) t=6783
RD a=$4C5D d=FFFF CP-1610          (PC = $4C5C) t=6783
FFFF 8001 0000 4B31 4B31 4B31 4B31 4C5E --OC--i-  CLRR R1          6791
RD a=$4C5E d=01C9 CP-1610          (PC = $4C5E) t=6791
FFFF 0000 0000 4B31 4B31 4B31 4B31 4C5F -ZOC--i-  RSWD R1          6797
RD a=$4C5F d=0039 CP-1610          (PC = $4C5F) t=6797
FFFF 0000 0000 4B31 4B31 4B31 4B31 4C60 --------  MVO  R1,$0200         6803
RD a=$4C60 d=0241 CP-1610          (PC = $4C60) t=6803
RD a=$4C61 d=0200 CP-1610          (PC = $4C60) t=6803
WR a=$0200 d=0000 CP-1610          (PC = $4C60) t=6803
FFFF 0000 0000 4B31 4B31 4B31 4B31 4C62 --------  AND  $0200,R0         6814
RD a=$4C62 d=0380 CP-1610          (PC = $4C62) t=6814
RD a=$4C63 d=0200 CP-1610          (PC = $4C62) t=6814
RD a=$0200 d=0000 CP-1610          (PC = $4C62) t=6814
0000 0000 0000 4B31 4B31 4B31 4B31 4C64 -Z----i-  MVII #$8000,R0         6824
RD a=$4C64 d=02B8 CP-1610          (PC = $4C64) t=6824
RD a=$4C65 d=8000 CP-1610          (PC = $4C64) t=6824
8000 0000 0000 4B31 4B31 4B31 4B31 4C66 -Z----i-  MVII #$FFFF,R1         6832
RD a=$4C66 d=02B9 CP-1610          (PC = $4C66) t=6832
RD a=$4C67 d=FFFF CP-1610          (PC = $4C66) t=6832
8000 FFFF 0000 4B31 4B31 4B31 4B31 4C68 -Z----i-  MVO  R1,$0200         6840
RD a=$4C68 d=0241 CP-1610          (PC = $4C68) t=6840
RD a=$4C69 d=0200 CP-1610          (PC = $4C68) t=6840
WR a=$0200 d=FFFF CP-1610          (PC = $4C68) t=6840
8000 FFFF 0000 4B31 4B31 4B31 4B31 4C6A -Z------  CLRR R2          6851
RD a=$4C6A d=01D2 CP-1610          (PC = $4C6A) t=6851
8000 FFFF 0000 4B31 4B31 4B31 4B31 4C6B -Z----i-  RSWD R2          6857
RD a=$4C6B d=003A CP-1610          (PC = $4C6B) t=6857
8000 FFFF 0000 4B31 4B31 4B31 4B31 4C6C --------  AND  $0200,R0         6863
RD a=$4C6C d=0380 CP-1610          (PC = $4C6C) t=6863
RD a=$4C6D d=0200 CP-1610          (PC = $4C6C) t=6863
RD a=$0200 d=FFFF CP-1610          (PC = $4C6C) t=6863
8000 FFFF 0000 4B31 4B31 4B31 4B31 4C6E S-----i-  MVII #$FFFF,R0         6873
RD a=$4C6E d=02B8 CP-1610          (PC = $4C6E) t=6873
RD a=$4C6F d=FFFF CP-1610          (PC = $4C6E) t=6873
FFFF FFFF 0000 4B31 4B31 4B31 4B31 4C70 S-----i-  CLRR R1          6881
RD a=$4C70 d=01C9 CP-1610          (PC = $4C70) t=6881
FFFF 0000 0000 4B31 4B31 4B31 4B31 4C71 -Z----i-  RSWD R1          6887
RD a=$4C71 d=0039 CP-1610          (PC = $4C71) t=6887
FFFF 0000 0000 4B31 4B31 4B31 4B31 4C72 --------  MVO  R1,$0200         6893
RD a=$4C72 d=0241 CP-1610          (PC = $4C72) t=6893
RD a=$4C73 d=0200 CP-1610          (PC = $4C72) t=6893
WR a=$0200 d=0000 CP-1610          (PC = $4C72) t=6893
FFFF 0000 0000 4B31 4B31 4B31 4B31 4C74 --------  MVII #$0200,R1         6904
RD a=$4C74 d=02B9 CP-1610          (PC = $4C74) t=6904
RD a=$4C75 d=0200 CP-1610          (PC = $4C74) t=6904
FFFF 0200 0000 4B31 4B31 4B31 4B31 4C76 ------i-  AND@ R1,R0         6912
RD a=$4C76 d=0388 CP-1610          (PC = $4C76) t=6912
RD a=$0200 d=0000 CP-1610          (PC = $4C76) t=6912
0000 0200 0000 4B31 4B31 4B31 4B31 4C77 -Z----i-  MVII #$8000,R0         6920
RD a=$4C77 d=02B8 CP-1610          (PC = $4C77) t=6920
RD a=$4C78 d=8000 CP-1610          (PC = $4C77) t=6920
8000 0200 0000 4B31 4B31 4B31 4B31 4C79 -Z----i-  MVII #$FFFF,R1         6928
RD a=$4C79 d=02B9 CP-1610          (PC = $4C79) t=6928
RD a=$4C7A d=FFFF CP-1610          (PC = $4C79) t=6928
8000 FFFF 0000 4B31 4B31 4B31 4B31 4C7B -Z----i-  MVO  R1,$0200         6936
RD a=$4C7B d=0241 CP-1610          (PC = $4C7B) t=6936
RD a=$4C7C d=0200 CP-1610          (PC = $4C7B) t=6936
WR a=$0200 d=FFFF CP-1610          (PC = $4C7B) t=6936
8000 FFFF 0000 4B31 4B31 4B31 4B31 4C7D -Z------  CLRR R2          6947
RD a=$4C7D d=01D2 CP-1610          (PC = $4C7D) t=6947
8000 FFFF 0000 4B31 4B31 4B31 4B31 4C7E -Z----i-  RSWD R2          6953
RD a=$4C7E d=003A CP-1610          (PC = $4C7E) t=6953
8000 FFFF 0000 4B31 4B31 4B31 4B31 4C7F --------  MVII #$0200,R1         6959
RD a=$4C7F d=02B9 CP-1610          (PC = $4C7F) t=6959
RD a=$4C80 d=0200 CP-1610          (PC = $4C7F) t=6959
8000 0200 0000 4B31 4B31 4B31 4B31 4C81 ------i-  AND@ R1,R0         6967
RD a=$4C81 d=0388 CP-1610          (PC = $4C81) t=6967
RD a=$0200 d=FFFF CP-1610          (PC = $4C81) t=6967
8000 0200 0000 4B31 4B31 4B31 4B31 4C82 S-----i-  CLRR R2          6975
RD a=$4C82 d=01D2 CP-1610          (PC = $4C82) t=6975
8000 0200 0000 4B31 4B31 4B31 4B31 4C83 -Z----i-  RSWD R2          6981
RD a=$4C83 d=003A CP-1610          (PC = $4C83) t=6981
8000 0200 0000 4B31 4B31 4B31 4B31 4C84 --------  MVII #$FFFF,R0         6987
RD a=$4C84 d=02B8 CP-1610          (PC = $4C84) t=6987
RD a=$4C85 d=FFFF CP-1610          (PC = $4C84) t=6987
FFFF 0200 0000 4B31 4B31 4B31 4B31 4C86 ------i-  ANDI #$0200,R0         6995
RD a=$4C86 d=03B8 CP-1610          (PC = $4C86) t=6995
RD a=$4C87 d=0200 CP-1610          (PC = $4C86) t=6995
0200 0200 0000 4B31 4B31 4B31 4B31 4C88 ------i-  CLRR R2          7003
RD a=$4C88 d=01D2 CP-1610          (PC = $4C88) t=7003
0200 0200 0000 4B31 4B31 4B31 4B31 4C89 -Z----i-  RSWD R2          7009
RD a=$4C89 d=003A CP-1610          (PC = $4C89) t=7009
0200 0200 0000 4B31 4B31 4B31 4B31 4C8A --------  MVII #$8000,R0         7015
RD a=$4C8A d=02B8 CP-1610          (PC = $4C8A) t=7015
RD a=$4C8B d=8000 CP-1610          (PC = $4C8A) t=7015
8000 0200 0000 4B31 4B31 4B31 4B31 4C8C ------i-  ANDI #$FFFF,R0         7023
RD a=$4C8C d=03B8 CP-1610          (PC = $4C8C) t=7023
RD a=$4C8D d=FFFF CP-1610          (PC = $4C8C) t=7023
8000 0200 0000 4B31 4B31 4B31 4B31 4C8E S-----i-  MVII #$FFFF,R0         7031
RD a=$4C8E d=02B8 CP-1610          (PC = $4C8E) t=7031
RD a=$4C8F d=FFFF CP-1610          (PC = $4C8E) t=7031
FFFF 0200 0000 4B31 4B31 4B31 4B31 4C90 S-----i-  MVII #$FFFF,R1         7039
RD a=$4C90 d=02B9 CP-1610          (PC = $4C90) t=7039
RD a=$4C91 d=FFFF CP-1610          (PC = $4C90) t=7039
FFFF FFFF 0000 4B31 4B31 4B31 4B31 4C92 S-----i-  MVO  R1,$0200         7047
RD a=$4C92 d=0241 CP-1610          (PC = $4C92) t=7047
RD a=$4C93 d=0200 CP-1610          (PC = $4C92) t=7047
WR a=$0200 d=FFFF CP-1610          (PC = $4C92) t=7047
FFFF FFFF 0000 4B31 4B31 4B31 4B31 4C94 S-------  CLRR R2          7058
RD a=$4C94 d=01D2 CP-1610          (PC = $4C94) t=7058
FFFF FFFF 0000 4B31 4B31 4B31 4B31 4C95 -Z----i-  RSWD R2          7064
RD a=$4C95 d=003A CP-1610          (PC = $4C95) t=7064
FFFF FFFF 0000 4B31 4B31 4B31 4B31 4C96 --------  XOR  $0200,R1         7070
RD a=$4C96 d=03C1 CP-1610          (PC = $4C96) t=7070
RD a=$4C97 d=0200 CP-1610          (PC = $4C96) t=7070
RD a=$0200 d=FFFF CP-1610          (PC = $4C96) t=7070
FFFF 0000 0000 4B31 4B31 4B31 4B31 4C98 -Z----i-  MVII #$8000,R0         7080
RD a=$4C98 d=02B8 CP-1610          (PC = $4C98) t=7080
RD a=$4C99 d=8000 CP-1610          (PC = $4C98) t=7080
8000 0000 0000 4B31 4B31 4B31 4B31 4C9A -Z----i-  CLRR R1          7088
RD a=$4C9A d=01C9 CP-1610          (PC = $4C9A) t=7088
8000 0000 0000 4B31 4B31 4B31 4B31 4C9B -Z----i-  MVO  R1,$0200         7094
RD a=$4C9B d=0241 CP-1610          (PC = $4C9B) t=7094
RD a=$4C9C d=0200 CP-1610          (PC = $4C9B) t=7094
WR a=$0200 d=0000 CP-1610          (PC = $4C9B) t=7094
8000 0000 0000 4B31 4B31 4B31 4B31 4C9D -Z------  RSWD R1          7105
RD a=$4C9D d=0039 CP-1610          (PC = $4C9D) t=7105
8000 0000 0000 4B31 4B31 4B31 4B31 4C9E --------  XOR  $0200,R1         7111
RD a=$4C9E d=03C1 CP-1610          (PC = $4C9E) t=7111
RD a=$4C9F d=0200 CP-1610          (PC = $4C9E) t=7111
RD a=$0200 d=0000 CP-1610          (PC = $4C9E) t=7111
8000 0000 0000 4B31 4B31 4B31 4B31 4CA0 -Z----i-  MVII #$FFFF,R0         7121
RD a=$4CA0 d=02B8 CP-1610          (PC = $4CA0) t=7121
RD a=$4CA1 d=FFFF CP-1610          (PC = $4CA0) t=7121
FFFF 0000 0000 4B31 4B31 4B31 4B31 4CA2 -Z----i-  MVII #$FFFF,R1         7129
RD a=$4CA2 d=02B9 CP-1610          (PC = $4CA2) t=7129
RD a=$4CA3 d=FFFF CP-1610          (PC = $4CA2) t=7129
FFFF FFFF 0000 4B31 4B31 4B31 4B31 4CA4 -Z----i-  MVO  R1,$0200         7137
RD a=$4CA4 d=0241 CP-1610          (PC = $4CA4) t=7137
RD a=$4CA5 d=0200 CP-1610          (PC = $4CA4) t=7137
WR a=$0200 d=FFFF CP-1610          (PC = $4CA4) t=7137
FFFF FFFF 0000 4B31 4B31 4B31 4B31 4CA6 -Z------  MVII #$0200,R1         7148
RD a=$4CA6 d=02B9 CP-1610          (PC = $4CA6) t=7148
RD a=$4CA7 d=0200 CP-1610          (PC = $4CA6) t=7148
FFFF 0200 0000 4B31 4B31 4B31 4B31 4CA8 -Z----i-  CLRR R2          7156
RD a=$4CA8 d=01D2 CP-1610          (PC = $4CA8) t=7156
FFFF 0200 0000 4B31 4B31 4B31 4B31 4CA9 -Z----i-  RSWD R2          7162
RD a=$4CA9 d=003A CP-1610          (PC = $4CA9) t=7162
FFFF 0200 0000 4B31 4B31 4B31 4B31 4CAA --------  XOR@ R1,R0         7168
RD a=$4CAA d=03C8 CP-1610          (PC = $4CAA) t=7168
RD a=$0200 d=FFFF CP-1610          (PC = $4CAA) t=7168
0000 0200 0000 4B31 4B31 4B31 4B31 4CAB -Z----i-  MVII #$8000,R0         7176
RD a=$4CAB d=02B8 CP-1610          (PC = $4CAB) t=7176
RD a=$4CAC d=8000 CP-1610          (PC = $4CAB) t=7176
8000 0200 0000 4B31 4B31 4B31 4B31 4CAD -Z----i-  CLRR R1          7184
RD a=$4CAD d=01C9 CP-1610          (PC = $4CAD) t=7184
8000 0000 0000 4B31 4B31 4B31 4B31 4CAE -Z----i-  MVO  R1,$0200         7190
RD a=$4CAE d=0241 CP-1610          (PC = $4CAE) t=7190
RD a=$4CAF d=0200 CP-1610          (PC = $4CAE) t=7190
WR a=$0200 d=0000 CP-1610          (PC = $4CAE) t=7190
8000 0000 0000 4B31 4B31 4B31 4B31 4CB0 -Z------  MVII #$0200,R1         7201
RD a=$4CB0 d=02B9 CP-1610          (PC = $4CB0) t=7201
RD a=$4CB1 d=0200 CP-1610          (PC = $4CB0) t=7201
8000 0200 0000 4B31 4B31 4B31 4B31 4CB2 -Z----i-  CLRR R2          7209
RD a=$4CB2 d=01D2 CP-1610          (PC = $4CB2) t=7209
8000 0200 0000 4B31 4B31 4B31 4B31 4CB3 -Z----i-  RSWD R2          7215
RD a=$4CB3 d=003A CP-1610          (PC = $4CB3) t=7215
8000 0200 0000 4B31 4B31 4B31 4B31 4CB4 --------  XOR@ R1,R0         7221
RD a=$4CB4 d=03C8 CP-1610          (PC = $4CB4) t=7221
RD a=$0200 d=0000 CP-1610          (PC = $4CB4) t=7221
8000 0200 0000 4B31 4B31 4B31 4B31 4CB5 S-----i-  MVII #$FFFF,R0         7229
RD a=$4CB5 d=02B8 CP-1610          (PC = $4CB5) t=7229
RD a=$4CB6 d=FFFF CP-1610          (PC = $4CB5) t=7229
FFFF 0200 0000 4B31 4B31 4B31 4B31 4CB7 S-----i-  CLRR R2          7237
RD a=$4CB7 d=01D2 CP-1610          (PC = $4CB7) t=7237
FFFF 0200 0000 4B31 4B31 4B31 4B31 4CB8 -Z----i-  RSWD R2          7243
RD a=$4CB8 d=003A CP-1610          (PC = $4CB8) t=7243
FFFF 0200 0000 4B31 4B31 4B31 4B31 4CB9 --------  XORI #$FFFF,R0         7249
RD a=$4CB9 d=03F8 CP-1610          (PC = $4CB9) t=7249
RD a=$4CBA d=FFFF CP-1610          (PC = $4CB9) t=7249
0000 0200 0000 4B31 4B31 4B31 4B31 4CBB -Z----i-  MVII #$8000,R0         7257
RD a=$4CBB d=02B8 CP-1610          (PC = $4CBB) t=7257
RD a=$4CBC d=8000 CP-1610          (PC = $4CBB) t=7257
8000 0200 0000 4B31 4B31 4B31 4B31 4CBD -Z----i-  CLRR R2          7265
RD a=$4CBD d=01D2 CP-1610          (PC = $4CBD) t=7265
8000 0200 0000 4B31 4B31 4B31 4B31 4CBE -Z----i-  RSWD R2          7271
RD a=$4CBE d=003A CP-1610          (PC = $4CBE) t=7271
8000 0200 0000 4B31 4B31 4B31 4B31 4CBF --------  XORI #$0000,R0         7277
RD a=$4CBF d=03F8 CP-1610          (PC = $4CBF) t=7277
RD a=$4CC0 d=0000 CP-1610          (PC = $4CBF) t=7277
8000 0200 0000 4B31 4B31 4B31 4B31 4CC1 S-----i-  HLT            7285
RD a=$4CC1 d=0000 CP-1610          (PC = $4CC1) t=7285
8000 0200 0000 4B31 4B31 4B31 4B31 4CC1 S-------  HLT            7289
8000 0200 0000 4B31 4B31 4B31 4B31 4CC1 S-------  HLT            7293
8000 0200 0000 4B31 4B31 4B31 4B31 4CC1 S-------  HLT            7297
8000 0200 0000 4B31 4B31 4B31 4B31 4CC1 S-------  HLT            7301
8000 0200 0000 4B31 4B31 4B31 4B31 4CC1 S-------  HLT            7305
8000 0200 0000 4B31 4B31 4B31 4B31 4CC1 S-------  HLT            7309
8000 0200 0000 4B31 4B31 4B31 4B31 4CC1 S-------  HLT            7313
8000 0200 0000 4B31 4B31 4B31 4B31 4CC1 S-------  HLT            7317
8000 0200 0000 4B31 4B31 4B31 4B31 4CC1 S-------  HLT            7321
8000 0200 0000 4B31 4B31 4B31 4B31 4CC1 S-------  HLT            7325
8000 0200 0000 4B31 4B31 4B31 4B31 4CC1 S-------  HLT            7329
8000 0200 0000 4B31 4B31 4B31 4B31 4CC1 S-------  HLT            7333
8000 0200 0000 4B31 4B31 4B31 4B31 4CC1 S-------  HLT            7337
8000 0200 0000 4B31 4B31 4B31 4B31 4CC1 S-------  HLT            7341
8000 0200 0000 4B31 4B31 4B31 4B31 4CC1 S-------  HLT            7345
8000 0200 0000 4B31 4B31 4B31 4B31 4CC1 S-------  HLT            7349
8000 0200 0000 4B31 4B31 4B31 4B31 4CC1 S-------  HLT            7353
8000 0200 0000 4B31 4B31 4B31 4B31 4CC1 S-------  HLT            7357
8000 0200 0000 4B31 4B31 4B31 4B31 4CC1 S-------  HLT            7361
8000 0200 0000 4B31 4B31 4B31 4B31 4CC1 S-------  HLT            7365
8000 0200 0000 4B31 4B31 4B31 4B31 4CC1 S-------  HLT            7369
8000 0200 0000 4B31 4B31 4B31 4B31 4CC1 S-------  HLT            7373
8000 0200 0000 4B31 4B31 4B31 4B31 4CC1 S-------  HLT            7377
8000 0200 0000 4B31 4B31 4B31 4B31 4CC1 S-------  HLT            7381
8000 0200 0000 4B31 4B31 4B31 4B31 4CC1 S-------  HLT            7385
8000 0200 0000 4B31 4B31 4B31 4B31 4CC1 S-------  HLT            7389
8000 0200 0000 4B31 4B31 4B31 4B31 4CC1 S-------  HLT            7393
8000 0200 0000 4B31 4B31 4B31 4B31 4CC1 S-------  HLT            7397
8000 0200 0000 4B31 4B31 4B31 4B31 4CC1 S-------  HLT            7401
8000 0200 0000 4B31 4B31 4B31 4B31 4CC1 S-------  HLT            7405
8000 0200 0000 4B31 4B31 4B31 4B31 4CC1 S-------  HLT            7409
8000 0200 0000 4B31 4B31 4B31 4B31 4CC1 S-------  HLT            7413
8000 0200 0000 4B31 4B31 4B31 4B31 4CC1 S-------  HLT            7417
8000 0200 0000 4B31 4B31 4B31 4B31 4CC1 S-------  HLT            7421
8000 0200 0000 4B31 4B31 4B31 4B31 4CC1 S-------  HLT            7425
8000 0200 0000 4B31 4B31 4B31 4B31 4CC1 S-------  HLT            7429
8000 0200 0000 4B31 4B31 4B31 4B31 4CC1 S-------  HLT            7433
8000 0200 0000 4B31 4B31 4B31 4B31 4CC1 S-------  HLT            7437
8000 0200 0000 4B31 4B31 4B31 4B31 4CC1 S-------  HLT            7441
8000 0200 0000 4B31 4B31 4B31 4B31 4CC1 S-------  HLT            7445
8000 0200 0000 4B31 4B31 4B31 4B31 4CC1 S-------  HLT            7449
8000 0200 0000 4B31 4B31 4B31 4B31 4CC1 S-------  HLT            7453
8000 0200 0000 4B31 4B31 4B31 4B31 4CC1 S-------  HLT            7457
8000 0200 0000 4B31 4B31 4B31 4B31 4CC1 S-------  HLT            7461
8000 0200 0000 4B31 4B31 4B31 4B31 4CC1 S-------  HLT            7465
8000 0200 0000 4B31 4B31 4B31 4B31 4CC1 S-------  HLT            7469
8000 0200 0000 4B31 4B31 4B31 4B31 4CC1 S-------  HLT            7473
8000 0200 0000 4B31 4B31 4B31 4B31 4CC1 S-------  HLT            7477
8000 0200 0000 4B31 4B31 4B31 4B31 4CC1 S-------  HLT            7481
8000 0200 0000 4B31 4B31 4B31 4B31 4CC1 S-------  HLT            7485
8000 0200 0000 4B31 4B31 4B31 4B31 4CC1 S-------  HLT            7489
8000 0200 0000 4B31 4B31 4B31 4B31 4CC1 S-------  HLT            7493
8000 0200 0000 4B31 4B31 4B31 4B31 4CC1 S-------  HLT            7497
8000 0200 0000 4B31 4B31 4B31 4B31 4CC1 S-------  HLT            7501
8000 0200 0000 4B31 4B31 4B31 4B31 4CC1 S-------  HLT            7505
8000 0200 0000 4B31 4B31 4B31 4B31 4CC1 S-------  HLT            7509
8000 0200 0000 4B31 4B31 4B31 4B31 4CC1 S-------  HLT            7513
8000 0200 0000 4B31 4B31 4B31 4B31 4CC1 S-------  HLT            7517
8000 0200 0000 4B31 4B31 4B31 4B31 4CC1 S-------  HLT            7521
8000 0200 0000 4B31 4B31 4B31 4B31 4CC1 S-------  HLT            7525
8000 0200 0000 4B31 4B31 4B31 4B31 4CC1 S-------  HLT            7529
8000 0200 0000 4B31 4B31 4B31 4B31 4CC1 S-------  HLT            7533
8000 0200 0000 4B31 4B31 4B31 4B31 4CC1 S-------  HLT            7537
8000 0200 0000 4B31 4B31 4B31 4B31 4CC1 S-------  HLT            7541
8000 0200 0000 4B31 4B31 4B31 4B31 4CC1 S-------  HLT            7545
8000 0200 0000 4B31 4B31 4B31 4B31 4CC1 S-------  HLT            7549
8000 0200 0000 4B31 4B31 4B31 4B31 4CC1 S-------  HLT            7553
8000 0200 0000 4B31 4B31 4B31 4B31 4CC1 S-------  HLT            7557
8000 0200 0000 4B31 4B31 4B31 4B31 4CC1 S-------  HLT            7561
8000 0200 0000 4B31 4B31 4B31 4B31 4CC1 S-------  HLT            7565
8000 0200 0000 4B31 4B31 4B31 4B31 4CC1 S-------  HLT            7569
8000 0200 0000 4B31 4B31 4B31 4B31 4CC1 S-------  HLT            7573
8000 0200 0000 4B31 4B31 4B31 4B31 4CC1 S-------  HLT            7577
8000 0200 0000 4B31 4B31 4B31 4B31 4CC1 S-------  HLT            7581
8000 0200 0000 4B31 4B31 4B31 4B31 4CC1 S-------  HLT            7585
8000 0200 0000 4B31 4B31 4B31 4B31 4CC1 S-------  HLT            7589
8000 0200 0000 4B31 4B31 4B31 4B31 4CC1 S-------  HLT            7593
8000 0200 0000 4B31 4B31 4B31 4B31 4CC1 S-------  HLT            7597
8000 0200 0000 4B31 4B31 4B31 4B31 4CC1 S-------  HLT            7601
8000 0200 0000 4B31 4B31 4B31 4B31 4CC1 S-------  HLT            7605
8000 0200 0000 4B31 4B31 4B31 4B31 4CC1 S-------  HLT            7609
8000 0200 0000 4B31 4B31 4B31 4B31 4CC1 S-------  HLT            7613
8000 0200 0000 4B31 4B31 4B31 4B31 4CC1 S-------  HLT            7617
8000 0200 0000 4B31 4B31 4B31 4B31 4CC1 S-------  HLT            7621
8000 0200 0000 4B31 4B31 4B31 4B31 4CC1 S-------  HLT            7625
8000 0200 0000 4B31 4B31 4B31 4B31 4CC1 S-------  HLT            7629
8000 0200 0000 4B31 4B31 4B31 4B31 4CC1 S-------  HLT            7633
8000 0200 0000 4B31 4B31 4B31 4B31 4CC1 S-------  HLT            7637
8000 0200 0000 4B31 4B31 4B31 4B31 4CC1 S-------  HLT            7641
8000 0200 0000 4B31 4B31 4B31 4B31 4CC1 S-------  HLT            7645
8000 0200 0000 4B31 4B31 4B31 4B31 4CC1 S-------  HLT            7649
8000 0200 0000 4B31 4B31 4B31 4B31 4CC1 S-------  HLT            7653
8000 0200 0000 4B31 4B31 4B31 4B31 4CC1 S-------  HLT            7657
8000 0200 0000 4B31 4B31 4B31 4B31 4CC1 S-------  HLT            7661
8000 0200 0000 4B31 4B31 4B31 4B31 4CC1 S-------  HLT            7665
8000 0200 0000 4B31 4B31 4B31 4B31 4CC1 S-------  HLT            7669
8000 0200 0000 4B31 4B31 4B31 4B31 4CC1 S-------  HLT            7673
8000 0200 0000 4B31 4B31 4B31 4B31 4CC1 S-------  HLT            7677
8000 0200 0000 4B31 4B31 4B31 4B31 4CC1 S-------  HLT            7681
8000 0200 0000 4B31 4B31 4B31 4B31 4CC1 S-------  HLT            7685
8000 0200 0000 4B31 4B31 4B31 4B31 4CC1 S-------  HLT            7689
8000 0200 0000 4B31 4B31 4B31 4B31 4CC1 S-------  HLT            7693
8000 0200 0000 4B31 4B31 4B31 4B31 4CC1 S-------  HLT            7697
8000 0200 0000 4B31 4B31 4B31 4B31 4CC1 S-------  HLT            7701
8000 0200 0000 4B31 4B31 4B31 4B31 4CC1 S-------  HLT            7705
8000 0200 0000 4B31 4B31 4B31 4B31 4CC1 S-------  HLT            7709
8000 0200 0000 4B31 4B31 4B31 4B31 4CC1 S-------  HLT            7713
8000 0200 0000 4B31 4B31 4B31 4B31 4CC1 S-------  HLT            7717
8000 0200 0000 4B31 4B31 4B31 4B31 4CC1 S-------  HLT            7721
8000 0200 0000 4B31 4B31 4B31 4B31 4CC1 S-------  HLT            7725
8000 0200 0000 4B31 4B31 4B31 4B31 4CC1 S-------  HLT            7729
8000 0200 0000 4B31 4B31 4B31 4B31 4CC1 S-------  HLT            7733
8000 0200 0000 4B31 4B31 4B31 4B31 4CC1 S-------  HLT            7737
8000 0200 0000 4B31 4B31 4B31 4B31 4CC1 S-------  HLT            7741
8000 0200 0000 4B31 4B31 4B31 4B31 4CC1 S-------  HLT            7745
8000 0200 0000 4B31 4B31 4B31 4B31 4CC1 S-------  HLT            7749
8000 0200 0000 4B31 4B31 4B31 4B31 4CC1 S-------  HLT            7753
8000 0200 0000 4B31 4B31 4B31 4B31 4CC1 S-------  HLT            7757
8000 0200 0000 4B31 4B31 4B31 4B31 4CC1 S-------  HLT            7761
8000 0200 0000 4B31 4B31 4B31 4B31 4CC1 S-------  HLT            7765
8000 0200 0000 4B31 4B31 4B31 4B31 4CC1 S-------  HLT            7769
8000 0200 0000 4B31 4B31 4B31 4B31 4CC1 S-------  HLT            7773
8000 0200 0000 4B31 4B31 4B31 4B31 4CC1 S-------  HLT            7777
8000 0200 0000 4B31 4B31 4B31 4B31 4CC1 S-------  HLT            7781
8000 0200 0000 4B31 4B31 4B31 4B31 4CC1 S-------  HLT            7785
8000 0200 0000 4B31 4B31 4B31 4B31 4CC1 S-------  HLT            7789
8000 0200 0000 4B31 4B31 4B31 4B31 4CC1 S-------  HLT            7793
8000 0200 0000 4B31 4B31 4B31 4B31 4CC1 S-------  HLT            7797
8000 0200 0000 4B31 4B31 4B31 4B31 4CC1 S-------  HLT            7801
8000 0200 0000 4B31 4B31 4B31 4B31 4CC1 S-------  HLT            7805
8000 0200 0000 4B31 4B31 4B31 4B31 4CC1 S-------  HLT            7809
8000 0200 0000 4B31 4B31 4B31 4B31 4CC1 S-------  HLT            7813
8000 0200 0000 4B31 4B31 4B31 4B31 4CC1 S-------  HLT            7817
8000 0200 0000 4B31 4B31 4B31 4B31 4CC1 S-------  HLT            7821
8000 0200 0000 4B31 4B31 4B31 4B31 4CC1 S-------  HLT            7825
8000 0200 0000 4B31 4B31 4B31 4B31 4CC1 S-------  HLT            7829
8000 0200 0000 4B31 4B31 4B31 4B31 4CC1 S-------  HLT            7833
8000 0200 0000 4B31 4B31 4B31 4B31 4CC1 S-------  HLT            7837
8000 0200 0000 4B31 4B31 4B31 4B31 4CC1 S-------  HLT            7841
8000 0200 0000 4B31 4B31 4B31 4B31 4CC1 S-------  HLT            7845
8000 0200 0000 4B31 4B31 4B31 4B31 4CC1 S-------  HLT            7849
8000 0200 0000 4B31 4B31 4B31 4B31 4CC1 S-------  HLT            7853
8000 0200 0000 4B31 4B31 4B31 4B31 4CC1 S-------  HLT            7857
8000 0200 0000 4B31 4B31 4B31 4B31 4CC1 S-------  HLT            7861
8000 0200 0000 4B31 4B31 4B31 4B31 4CC1 S-------  HLT            7865
8000 0200 0000 4B31 4B31 4B31 4B31 4CC1 S-------  HLT            7869
8000 0200 0000 4B31 4B31 4B31 4B31 4CC1 S-------  HLT            7873
8000 0200 0000 4B31 4B31 4B31 4B31 4CC1 S-------  HLT            7877
8000 0200 0000 4B31 4B31 4B31 4B31 4CC1 S-------  HLT            7881
8000 0200 0000 4B31 4B31 4B31 4B31 4CC1 S-------  HLT            7885
8000 0200 0000 4B31 4B31 4B31 4B31 4CC1 S-------  HLT            7889
8000 0200 0000 4B31 4B31 4B31 4B31 4CC1 S-------  HLT            7893
8000 0200 0000 4B31 4B31 4B31 4B31 4CC1 S-------  HLT            7897
8000 0200 0000 4B31 4B31 4B31 4B31 4CC1 S-------  HLT            7901
8000 0200 0000 4B31 4B31 4B31 4B31 4CC1 S-------  HLT            7905
8000 0200 0000 4B31 4B31 4B31 4B31 4CC1 S-------  HLT            7909
8000 0200 0000 4B31 4B31 4B31 4B31 4CC1 S-------  HLT            7913
8000 0200 0000 4B31 4B31 4B31 4B31 4CC1 S-------  HLT            7917
8000 0200 0000 4B31 4B31 4B31 4B31 4CC1 S-------  HLT            7921
8000 0200 0000 4B31 4B31 4B31 4B31 4CC1 S-------  HLT            7925
8000 0200 0000 4B31 4B31 4B31 4B31 4CC1 S-------  HLT            7929
8000 0200 0000 4B31 4B31 4B31 4B31 4CC1 S-------  HLT            7933
8000 0200 0000 4B31 4B31 4B31 4B31 4CC1 S-------  HLT            7937
8000 0200 0000 4B31 4B31 4B31 4B31 4CC1 S-------  HLT            7941
8000 0200 0000 4B31 4B31 4B31 4B31 4CC1 S-------  HLT            7945
8000 0200 0000 4B31 4B31 4B31 4B31 4CC1 S-------  HLT            7949
8000 0200 0000 4B31 4B31 4B31 4B31 4CC1 S-------  HLT            7953
8000 0200 0000 4B31 4B31 4B31 4B31 4CC1 S-------  HLT            7957
8000 0200 0000 4B31 4B31 4B31 4B31 4CC1 S-------  HLT            7961
8000 0200 0000 4B31 4B31 4B31 4B31 4CC1 S-------  HLT            7965
8000 0200 0000 4B31 4B31 4B31 4B31 4CC1 S-------  HLT            7969
8000 0200 0000 4B31 4B31 4B31 4B31 4CC1 S-------  HLT            7973
8000 0200 0000 4B31 4B31 4B31 4B31 4CC1 S-------  HLT            7977
8000 0200 0000 4B31 4B31 4B31 4B31 4CC1 S-------  HLT            7981
8000 0200 0000 4B31 4B31 4B31 4B31 4CC1 S-------  HLT            7985
8000 0200 0000 4B31 4B31 4B31 4B31 4CC1 S-------  HLT            7989
8000 0200 0000 4B31 4B31 4B31 4B31 4CC1 S-------  HLT            7993
8000 0200 0000 4B31 4B31 4B31 4B31 4CC1 S-------  HLT            7997
8000 0200 0000 4B31 4B31 4B31 4B31 4CC1 S-------  HLT            8001
8000 0200 0000 4B31 4B31 4B31 4B31 4CC1 S-------  HLT            8005
8000 0200 0000 4B31 4B31 4B31 4B31 4CC1 S-------  HLT            8009
8000 0200 0000 4B31 4B31 4B31 4B31 4CC1 S-------  HLT            8013
8000 0200 0000 4B31 4B31 4B31 4B31 4CC1 S-------  HLT            8017
8000 0200 0000 4B31 4B31 4B31 4B31 4CC1 S-------  HLT            8021
8000 0200 0000 4B31 4B31 4B31 4B31 4CC1 S-------  HLT            8025
8000 0200 0000 4B31 4B31 4B31 4B31 4CC1 S-------  HLT            8029
8000 0200 0000 4B31 4B31 4B31 4B31 4CC1 S-------  HLT            8033
8000 0200 0000 4B31 4B31 4B31 4B31 4CC1 S-------  HLT            8037
8000 0200 0000 4B31 4B31 4B31 4B31 4CC1 S-------  HLT            8041
8000 0200 0000 4B31 4B31 4B31 4B31 4CC1 S-------  HLT            8045
8000 0200 0000 4B31 4B31 4B31 4B31 4CC1 S-------  HLT            8049
8000 0200 0000 4B31 4B31 4B31 4B31 4CC1 S-------  HLT            8053
8000 0200 0000 4B31 4B31 4B31 4B31 4CC1 S-------  HLT            8057
8000 0200 0000 4B31 4B31 4B31 4B31 4CC1 S-------  HLT            8061
8000 0200 0000 4B31 4B31 4B31 4B31 4CC1 S-------  HLT            8065
8000 0200 0000 4B31 4B31 4B31 4B31 4CC1 S-------  HLT            8069
8000 0200 0000 4B31 4B31 4B31 4B31 4CC1 S-------  HLT            8073
8000 0200 0000 4B31 4B31 4B31 4B31 4CC1 S-------  HLT            8077
8000 0200 0000 4B31 4B31 4B31 4B31 4CC1 S-------  HLT            8081
8000 0200 0000 4B31 4B31 4B31 4B31 4CC1 S-------  HLT            8085
8000 0200 0000 4B31 4B31 4B31 4B31 4CC1 S-------  HLT            8089
8000 0200 0000 4B31 4B31 4B31 4B31 4CC1 S-------  HLT            8093
8000 0200 0000 4B31 4B31 4B31 4B31 4CC1 S-------  HLT            8097
8000 0200 0000 4B31 4B31 4B31 4B31 4CC1 S-------  HLT            8101
8000 0200 0000 4B31 4B31 4B31 4B31 4CC1 S-------  HLT            8105
8000 0200 0000 4B31 4B31 4B31 4B31 4CC1 S-------  HLT            8109
8000 0200 0000 4B31 4B31 4B31 4B31 4CC1 S-------  HLT            8113
8000 0200 0000 4B31 4B31 4B31 4B31 4CC1 S-------  HLT            8117
8000 0200 0000 4B31 4B31 4B31 4B31 4CC1 S-------  HLT            8121
8000 0200 0000 4B31 4B31 4B31 4B31 4CC1 S-------  HLT            8125
8000 0200 0000 4B31 4B31 4B31 4B31 4CC1 S-------  HLT            8129
8000 0200 0000 4B31 4B31 4B31 4B31 4CC1 S-------  HLT            8133
8000 0200 0000 4B31 4B31 4B31 4B31 4CC1 S-------  HLT            8137
8000 0200 0000 4B31 4B31 4B31 4B31 4CC1 S-------  HLT            8141
8000 0200 0000 4B31 4B31 4B31 4B31 4CC1 S-------  HLT            8145
8000 0200 0000 4B31 4B31 4B31 4B31 4CC1 S-------  HLT            8149
8000 0200 0000 4B31 4B31 4B31 4B31 4CC1 S-------  HLT            8153
8000 0200 0000 4B31 4B31 4B31 4B31 4CC1 S-------  HLT            8157
8000 0200 0000 4B31 4B31 4B31 4B31 4CC1 S-------  HLT            8161
8000 0200 0000 4B31 4B31 4B31 4B31 4CC1 S-------  HLT            8165
8000 0200 0000 4B31 4B31 4B31 4B31 4CC1 S-------  HLT            8169
8000 0200 0000 4B31 4B31 4B31 4B31 4CC1 S-------  HLT            8173
8000 0200 0000 4B31 4B31 4B31 4B31 4CC1 S-------  HLT            8177
8000 0200 0000 4B31 4B31 4B31 4B31 4CC1 S-------  HLT            8181
8000 0200 0000 4B31 4B31 4B31 4B31 4CC1 S-------  HLT            8185
8000 0200 0000 4B31 4B31 4B31 4B31 4CC1 S-------  HLT            8189
8000 0200 0000 4B31 4B31 4B31 4B31 4CC1 S-------  HLT            8193
8000 0200 0000 4B31 4B31 4B31 4B31 4CC1 S-------  HLT            8197
8000 0200 0000 4B31 4B31 4B31 4B31 4CC1 S-------  HLT            8201
8000 0200 0000 4B31 4B31 4B31 4B31 4CC1 S-------  HLT            8205
8000 0200 0000 4B31 4B31 4B31 4B31 4CC1 S-------  HLT            8209
8000 0200 0000 4B31 4B31 4B31 4B31 4CC1 S-------  HLT            8213
8000 0200 0000 4B31 4B31 4B31 4B31 4CC1 S-------  HLT            8217
8000 0200 0000 4B31 4B31 4B31 4B31 4CC1 S-------  HLT            8221
8000 0200 0000 4B31 4B31 4B31 4B31 4CC1 S-------  HLT            8225
8000 0200 0000 4B31 4B31 4B31 4B31 4CC1 S-------  HLT            8229
8000 0200 0000 4B31 4B31 4B31 4B31 4CC1 S-------  HLT            8233
8000 0200 0000 4B31 4B31 4B31 4B31 4CC1 S-------  HLT            8237
8000 0200 0000 4B31 4B31 4B31 4B31 4CC1 S-------  HLT            8241
8000 0200 0000 4B31 4B31 4B31 4B31 4CC1 S-------  HLT            8245
8000 0200 0000 4B31 4B31 4B31 4B31 4CC1 S-------  HLT            8249
8000 0200 0000 4B31 4B31 4B31 4B31 4CC1 S-------  HLT            8253
8000 0200 0000 4B31 4B31 4B31 4B31 4CC1 S-------  HLT            8257
8000 0200 0000 4B31 4B31 4B31 4B31 4CC1 S-------  HLT            8261
8000 0200 0000 4B31 4B31 4B31 4B31 4CC1 S-------  HLT            8265
8000 0200 0000 4B31 4B31 4B31 4B31 4CC1 S-------  HLT            8269
8000 0200 0000 4B31 4B31 4B31 4B31 4CC1 S-------  HLT            8273
8000 0200 0000 4B31 4B31 4B31 4B31 4CC1 S-------  HLT            8277
8000 0200 0000 4B31 4B31 4B31 4B31 4CC1 S-------  HLT            8281
8000 0200 0000 4B31 4B31 4B31 4B31 4CC1 S-------  HLT            8285
8000 0200 0000 4B31 4B31 4B31 4B31 4CC1 S-------  HLT            8289
8000 0200 0000 4B31 4B31 4B31 4B31 4CC1 S-------  HLT            8293
8000 0200 0000 4B31 4B31 4B31 4B31 4CC1 S-------  HLT            8297
8000 0200 0000 4B31 4B31 4B31 4B31 4CC1 S-------  HLT            8301
8000 0200 0000 4B31 4B31 4B31 4B31 4CC1 S-------  HLT            8305
8000 0200 0000 4B31 4B31 4B31 4B31 4CC1 S-------  HLT            8309
8000 0200 0000 4B31 4B31 4B31 4B31 4CC1 S-------  HLT            8313
8000 0200 0000 4B31 4B31 4B31 4B31 4CC1 S-------  HLT            8317
8000 0200 0000 4B31 4B31 4B31 4B31 4CC1 S-------  HLT            8321
8000 0200 0000 4B31 4B31 4B31 4B31 4CC1 S-------  HLT            8325
8000 0200 0000 4B31 4B31 4B31 4B31 4CC1 S-------  HLT            8329
8000 0200 0000 4B31 4B31 4B31 4B31 4CC1 S-------  HLT            8333
8000 0200 0000 4B31 4B31 4B31 4B31 4CC1 S-------  HLT            8337
8000 0200 0000 4B31 4B31 4B31 4B31 4CC1 S-------  HLT            8341
8000 0200 0000 4B31 4B31 4B31 4B31 4CC1 S-------  HLT            8345
8000 0200 0000 4B31 4B31 4B31 4B31 4CC1 S-------  HLT            8349
8000 0200 0000 4B31 4B31 4B31 4B31 4CC1 S-------  HLT            8353
8000 0200 0000 4B31 4B31 4B31 4B31 4CC1 S-------  HLT            8357
8000 0200 0000 4B31 4B31 4B31 4B31 4CC1 S-------  HLT            8361
8000 0200 0000 4B31 4B31 4B31 4B31 4CC1 S-------  HLT            8365
8000 0200 0000 4B31 4B31 4B31 4B31 4CC1 S-------  HLT            8369
8000 0200 0000 4B31 4B31 4B31 4B31 4CC1 S-------  HLT            8373
8000 0200 0000 4B31 4B31 4B31 4B31 4CC1 S-------  HLT            8377
8000 0200 0000 4B31 4B31 4B31 4B31 4CC1 S-------  HLT            8381
8000 0200 0000 4B31 4B31 4B31 4B31 4CC1 S-------  HLT            8385
8000 0200 0000 4B31 4B31 4B31 4B31 4CC1 S-------  HLT            8389
8000 0200 0000 4B31 4B31 4B31 4B31 4CC1 S-------  HLT            8393
8000 0200 0000 4B31 4B31 4B31 4B31 4CC1 S-------  HLT            8397
8000 0200 0000 4B31 4B31 4B31 4B31 4CC1 S-------  HLT            8401
8000 0200 0000 4B31 4B31 4B31 4B31 4CC1 S-------  HLT            8405
8000 0200 0000 4B31 4B31 4B31 4B31 4CC1 S-------  HLT            8409
8000 0200 0000 4B31 4B31 4B31 4B31 4CC1 S-------  HLT            8413
8000 0200 0000 4B31 4B31 4B31 4B31 4CC1 S-------  HLT            8417
8000 0200 0000 4B31 4B31 4B31 4B31 4CC1 S-------  HLT            8421
8000 0200 0000 4B31 4B31 4B31 4B31 4CC1 S-------  HLT            8425
8000 0200 0000 4B31 4B31 4B31 4B31 4CC1 S-------  HLT            8429
8000 0200 0000 4B31 4B31 4B31 4B31 4CC1 S-------  HLT            8433
8000 0200 0000 4B31 4B31 4B31 4B31 4CC1 S-------  HLT            8437
8000 0200 0000 4B31 4B31 4B31 4B31 4CC1 S-------  HLT            8441
8000 0200 0000 4B31 4B31 4B31 4B31 4CC1 S-------  HLT            8445
8000 0200 0000 4B31 4B31 4B31 4B31 4CC1 S-------  HLT            8449
8000 0200 0000 4B31 4B31 4B31 4B31 4CC1 S-------  HLT            8453
8000 0200 0000 4B31 4B31 4B31 4B31 4CC1 S-------  HLT            8457
8000 0200 0000 4B31 4B31 4B31 4B31 4CC1 S-------  HLT            8461
8000 0200 0000 4B31 4B31 4B31 4B31 4CC1 S-------  HLT            8465
8000 0200 0000 4B31 4B31 4B31 4B31 4CC1 S-------  HLT            8469
8000 0200 0000 4B31 4B31 4B31 4B31 4CC1 S-------  HLT            8473
8000 0200 0000 4B31 4B31 4B31 4B31 4CC1 S-------  HLT            8477
8000 0200 0000 4B31 4B31 4B31 4B31 4CC1 S-------  HLT            8481
8000 0200 0000 4B31 4B31 4B31 4B31 4CC1 S-------  HLT            8485
8000 0200 0000 4B31 4B31 4B31 4B31 4CC1 S-------  HLT            8489
8000 0200 0000 4B31 4B31 4B31 4B31 4CC1 S-------  HLT            8493
8000 0200 0000 4B31 4B31 4B31 4B31 4CC1 S-------  HLT            8497
8000 0200 0000 4B31 4B31 4B31 4B31 4CC1 S-------  HLT            8501
8000 0200 0000 4B31 4B31 4B31 4B31 4CC1 S-------  HLT            8505
8000 0200 0000 4B31 4B31 4B31 4B31 4CC1 S-------  HLT            8509
8000 0200 0000 4B31 4B31 4B31 4B31 4CC1 S-------  HLT            8513
8000 0200 0000 4B31 4B31 4B31 4B31 4CC1 S-------  HLT            8517
8000 0200 0000 4B31 4B31 4B31 4B31 4CC1 S-------  HLT            8521
8000 0200 0000 4B31 4B31 4B31 4B31 4CC1 S-------  HLT            8525
8000 0200 0000 4B31 4B31 4B31 4B31 4CC1 S-------  HLT            8529
8000 0200 0000 4B31 4B31 4B31 4B31 4CC1 S-------  HLT            8533
8000 0200 0000 4B31 4B31 4B31 4B31 4CC1 S-------  HLT            8537
8000 0200 0000 4B31 4B31 4B31 4B31 4CC1 S-------  HLT            8541
8000 0200 0000 4B31 4B31 4B31 4B31 4CC1 S-------  HLT            8545
8000 0200 0000 4B31 4B31 4B31 4B31 4CC1 S-------  HLT            8549
8000 0200 0000 4B31 4B31 4B31 4B31 4CC1 S-------  HLT            8553
8000 0200 0000 4B31 4B31 4B31 4B31 4CC1 S-------  HLT            8557
8000 0200 0000 4B31 4B31 4B31 4B31 4CC1 S-------  HLT            8561
8000 0200 0000 4B31 4B31 4B31 4B31 4CC1 S-------  HLT            8565
8000 0200 0000 4B31 4B31 4B31 4B31 4CC1 S-------  HLT            8569
8000 0200 0000 4B31 4B31 4B31 4B31 4CC1 S-------  HLT            8573
8000 0200 0000 4B31 4B31 4B31 4B31 4CC1 S-------  HLT            8577
8000 0200 0000 4B31 4B31 4B31 4B31 4CC1 S-------  HLT            8581
8000 0200 0000 4B31 4B31 4B31 4B31 4CC1 S-------  HLT            8585
8000 0200 0000 4B31 4B31 4B31 4B31 4CC1 S-------  HLT            8589
8000 0200 0000 4B31 4B31 4B31 4B31 4CC1 S-------  HLT            8593
8000 0200 0000 4B31 4B31 4B31 4B31 4CC1 S-------  HLT            8597
8000 0200 0000 4B31 4B31 4B31 4B31 4CC1 S-------  HLT            8601
8000 0200 0000 4B31 4B31 4B31 4B31 4CC1 S-------  HLT            8605
8000 0200 0000 4B31 4B31 4B31 4B31 4CC1 S-------  HLT            8609
8000 0200 0000 4B31 4B31 4B31 4B31 4CC1 S-------  HLT            8613
8000 0200 0000 4B31 4B31 4B31 4B31 4CC1 S-------  HLT            8617
8000 0200 0000 4B31 4B31 4B31 4B31 4CC1 S-------  HLT            8621
8000 0200 0000 4B31 4B31 4B31 4B31 4CC1 S-------  HLT            8625
8000 0200 0000 4B31 4B31 4B31 4B31 4CC1 S-------  HLT            8629
8000 0200 0000 4B31 4B31 4B31 4B31 4CC1 S-------  HLT            8633
8000 0200 0000 4B31 4B31 4B31 4B31 4CC1 S-------  HLT            8637
8000 0200 0000 4B31 4B31 4B31 4B31 4CC1 S-------  HLT            8641
8000 0200 0000 4B31 4B31 4B31 4B31 4CC1 S-------  HLT            8645
8000 0200 0000 4B31 4B31 4B31 4B31 4CC1 S-------  HLT            8649
8000 0200 0000 4B31 4B31 4B31 4B31 4CC1 S-------  HLT            8653
8000 0200 0000 4B31 4B31 4B31 4B31 4CC1 S-------  HLT            8657
8000 0200 0000 4B31 4B31 4B31 4B31 4CC1 S-------  HLT            8661
8000 0200 0000 4B31 4B31 4B31 4B31 4CC1 S-------  HLT            8665
8000 0200 0000 4B31 4B31 4B31 4B31 4CC1 S-------  HLT            8669
8000 0200 0000 4B31 4B31 4B31 4B31 4CC1 S-------  HLT            8673
8000 0200 0000 4B31 4B31 4B31 4B31 4CC1 S-------  HLT            8677
8000 0200 0000 4B31 4B31 4B31 4B31 4CC1 S-------  HLT            8681
8000 0200 0000 4B31 4B31 4B31 4B31 4CC1 S-------  HLT            8685
8000 0200 0000 4B31 4B31 4B31 4B31 4CC1 S-------  HLT            8689
8000 0200 0000 4B31 4B31 4B31 4B31 4CC1 S-------  HLT            8693
8000 0200 0000 4B31 4B31 4B31 4B31 4CC1 S-------  HLT            8697
8000 0200 0000 4B31 4B31 4B31 4B31 4CC1 S-------  HLT            8701
8000 0200 0000 4B31 4B31 4B31 4B31 4CC1 S-------  HLT            8705
8000 0200 0000 4B31 4B31 4B31 4B31 4CC1 S-------  HLT            8709
8000 0200 0000 4B31 4B31 4B31 4B31 4CC1 S-------  HLT            8713
8000 0200 0000 4B31 4B31 4B31 4B31 4CC1 S-------  HLT            8717
8000 0200 0000 4B31 4B31 4B31 4B31 4CC1 S-------  HLT            8721
8000 0200 0000 4B31 4B31 4B31 4B31 4CC1 S-------  HLT            8725
8000 0200 0000 4B31 4B31 4B31 4B31 4CC1 S-------  HLT            8729
8000 0200 0000 4B31 4B31 4B31 4B31 4CC1 S-------  HLT            8733
8000 0200 0000 4B31 4B31 4B31 4B31 4CC1 S-------  HLT            8737
8000 0200 0000 4B31 4B31 4B31 4B31 4CC1 S-------  HLT            8741
8000 0200 0000 4B31 4B31 4B31 4B31 4CC1 S-------  HLT            8745
8000 0200 0000 4B31 4B31 4B31 4B31 4CC1 S-------  HLT            8749
8000 0200 0000 4B31 4B31 4B31 4B31 4CC1 S-------  HLT            8753
8000 0200 0000 4B31 4B31 4B31 4B31 4CC1 S-------  HLT            8757
8000 0200 0000 4B31 4B31 4B31 4B31 4CC1 S-------  HLT            8761
8000 0200 0000 4B31 4B31 4B31 4B31 4CC1 S-------  HLT            8765
8000 0200 0000 4B31 4B31 4B31 4B31 4CC1 S-------  HLT            8769
8000 0200 0000 4B31 4B31 4B31 4B31 4CC1 S-------  HLT            8773
8000 0200 0000 4B31 4B31 4B31 4B31 4CC1 S-------  HLT            8777
8000 0200 0000 4B31 4B31 4B31 4B31 4CC1 S-------  HLT            8781
8000 0200 0000 4B31 4B31 4B31 4B31 4CC1 S-------  HLT            8785
8000 0200 0000 4B31 4B31 4B31 4B31 4CC1 S-------  HLT            8789
8000 0200 0000 4B31 4B31 4B31 4B31 4CC1 S-------  HLT            8793
8000 0200 0000 4B31 4B31 4B31 4B31 4CC1 S-------  HLT            8797
8000 0200 0000 4B31 4B31 4B31 4B31 4CC1 S-------  HLT            8801
8000 0200 0000 4B31 4B31 4B31 4B31 4CC1 S-------  HLT            8805
8000 0200 0000 4B31 4B31 4B31 4B31 4CC1 S-------  HLT            8809
8000 0200 0000 4B31 4B31 4B31 4B31 4CC1 S-------  HLT            8813
8000 0200 0000 4B31 4B31 4B31 4B31 4CC1 S-------  HLT            8817
8000 0200 0000 4B31 4B31 4B31 4B31 4CC1 S-------  HLT            8821
8000 0200 0000 4B31 4B31 4B31 4B31 4CC1 S-------  HLT            8825
8000 0200 0000 4B31 4B31 4B31 4B31 4CC1 S-------  HLT            8829
8000 0200 0000 4B31 4B31 4B31 4B31 4CC1 S-------  HLT            8833
8000 0200 0000 4B31 4B31 4B31 4B31 4CC1 S-------  HLT            8837
8000 0200 0000 4B31 4B31 4B31 4B31 4CC1 S-------  HLT            8841
8000 0200 0000 4B31 4B31 4B31 4B31 4CC1 S-------  HLT            8845
8000 0200 0000 4B31 4B31 4B31 4B31 4CC1 S-------  HLT            8849
8000 0200 0000 4B31 4B31 4B31 4B31 4CC1 S-------  HLT            8853
8000 0200 0000 4B31 4B31 4B31 4B31 4CC1 S-------  HLT            8857
8000 0200 0000 4B31 4B31 4B31 4B31 4CC1 S-------  HLT            8861
8000 0200 0000 4B31 4B31 4B31 4B31 4CC1 S-------  HLT            8865
8000 0200 0000 4B31 4B31 4B31 4B31 4CC1 S-------  HLT            8869
8000 0200 0000 4B31 4B31 4B31 4B31 4CC1 S-------  HLT            8873
8000 0200 0000 4B31 4B31 4B31 4B31 4CC1 S-------  HLT            8877
8000 0200 0000 4B31 4B31 4B31 4B31 4CC1 S-------  HLT            8881
8000 0200 0000 4B31 4B31 4B31 4B31 4CC1 S-------  HLT            8885
8000 0200 0000 4B31 4B31 4B31 4B31 4CC1 S-------  HLT            8889
8000 0200 0000 4B31 4B31 4B31 4B31 4CC1 S-------  HLT            8893
8000 0200 0000 4B31 4B31 4B31 4B31 4CC1 S-------  HLT            8897
8000 0200 0000 4B31 4B31 4B31 4B31 4CC1 S-------  HLT            8901
8000 0200 0000 4B31 4B31 4B31 4B31 4CC1 S-------  HLT            8905
8000 0200 0000 4B31 4B31 4B31 4B31 4CC1 S-------  HLT            8909
8000 0200 0000 4B31 4B31 4B31 4B31 4CC1 S-------  HLT            8913
8000 0200 0000 4B31 4B31 4B31 4B31 4CC1 S-------  HLT            8917
8000 0200 0000 4B31 4B31 4B31 4B31 4CC1 S-------  HLT            8921
8000 0200 0000 4B31 4B31 4B31 4B31 4CC1 S-------  HLT            8925
8000 0200 0000 4B31 4B31 4B31 4B31 4CC1 S-------  HLT            8929
8000 0200 0000 4B31 4B31 4B31 4B31 4CC1 S-------  HLT            8933
8000 0200 0000 4B31 4B31 4B31 4B31 4CC1 S-------  HLT            8937
8000 0200 0000 4B31 4B31 4B31 4B31 4CC1 S-------  HLT            8941
8000 0200 0000 4B31 4B31 4B31 4B31 4CC1 S-------  HLT            8945
8000 0200 0000 4B31 4B31 4B31 4B31 4CC1 S-------  HLT            8949
8000 0200 0000 4B31 4B31 4B31 4B31 4CC1 S-------  HLT            8953
8000 0200 0000 4B31 4B31 4B31 4B31 4CC1 S-------  HLT            8957
8000 0200 0000 4B31 4B31 4B31 4B31 4CC1 S-------  HLT            8961
8000 0200 0000 4B31 4B31 4B31 4B31 4CC1 S-------  HLT            8965
8000 0200 0000 4B31 4B31 4B31 4B31 4CC1 S-------  HLT            8969
8000 0200 0000 4B31 4B31 4B31 4B31 4CC1 S-------  HLT            8973
8000 0200 0000 4B31 4B31 4B31 4B31 4CC1 S-------  HLT            8977
8000 0200 0000 4B31 4B31 4B31 4B31 4CC1 S-------  HLT            8981
8000 0200 0000 4B31 4B31 4B31 4B31 4CC1 S-------  HLT            8985
8000 0200 0000 4B31 4B31 4B31 4B31 4CC1 S-------  HLT            8989
8000 0200 0000 4B31 4B31 4B31 4B31 4CC1 S-------  HLT            8993
8000 0200 0000 4B31 4B31 4B31 4B31 4CC1 S-------  HLT            8997
8000 0200 0000 4B31 4B31 4B31 4B31 4CC1 S-------  HLT            9001
8000 0200 0000 4B31 4B31 4B31 4B31 4CC1 S-------  HLT            9005
8000 0200 0000 4B31 4B31 4B31 4B31 4CC1 S-------  HLT            9009
8000 0200 0000 4B31 4B31 4B31 4B31 4CC1 S-------  HLT            9013
8000 0200 0000 4B31 4B31 4B31 4B31 4CC1 S-------  HLT            9017
8000 0200 0000 4B31 4B31 4B31 4B31 4CC1 S-------  HLT            9021
8000 0200 0000 4B31 4B31 4B31 4B31 4CC1 S-------  HLT            9025
8000 0200 0000 4B31 4B31 4B31 4B31 4CC1 S-------  HLT            9029
8000 0200 0000 4B31 4B31 4B31 4B31 4CC1 S-------  HLT            9033
8000 0200 0000 4B31 4B31 4B31 4B31 4CC1 S-------  HLT            9037
8000 0200 0000 4B31 4B31 4B31 4B31 4CC1 S-------  HLT            9041
8000 0200 0000 4B31 4B31 4B31 4B31 4CC1 S-------  HLT            9045
8000 0200 0000 4B31 4B31 4B31 4B31 4CC1 S-------  HLT            9049
8000 0200 0000 4B31 4B31 4B31 4B31 4CC1 S-------  HLT            9053
8000 0200 0000 4B31 4B31 4B31 4B31 4CC1 S-------  HLT            9057
8000 0200 0000 4B31 4B31 4B31 4B31 4CC1 S-------  HLT            9061
8000 0200 0000 4B31 4B31 4B31 4B31 4CC1 S-------  HLT            9065
8000 0200 0000 4B31 4B31 4B31 4B31 4CC1 S-------  HLT            9069
8000 0200 0000 4B31 4B31 4B31 4B31 4CC1 S-------  HLT            9073
8000 0200 0000 4B31 4B31 4B31 4B31 4CC1 S-------  HLT            9077
8000 0200 0000 4B31 4B31 4B31 4B31 4CC1 S-------  HLT            9081
8000 0200 0000 4B31 4B31 4B31 4B31 4CC1 S-------  HLT            9085
8000 0200 0000 4B31 4B31 4B31 4B31 4CC1 S-------  HLT            9089
8000 0200 0000 4B31 4B31 4B31 4B31 4CC1 S-------  HLT            9093
8000 0200 0000 4B31 4B31 4B31 4B31 4CC1 S-------  HLT            9097
8000 0200 0000 4B31 4B31 4B31 4B31 4CC1 S-------  HLT            9101
8000 0200 0000 4B31 4B31 4B31 4B31 4CC1 S-------  HLT            9105
8000 0200 0000 4B31 4B31 4B31 4B31 4CC1 S-------  HLT            9109
8000 0200 0000 4B31 4B31 4B31 4B31 4CC1 S-------  HLT            9113
8000 0200 0000 4B31 4B31 4B31 4B31 4CC1 S-------  HLT            9117
8000 0200 0000 4B31 4B31 4B31 4B31 4CC1 S-------  HLT            9121
8000 0200 0000 4B31 4B31 4B31 4B31 4CC1 S-------  HLT            9125
8000 0200 0000 4B31 4B31 4B31 4B31 4CC1 S-------  HLT            9129
8000 0200 0000 4B31 4B31 4B31 4B31 4CC1 S-------  HLT            9133
8000 0200 0000 4B31 4B31 4B31 4B31 4CC1 S-------  HLT            9137
8000 0200 0000 4B31 4B31 4B31 4B31 4CC1 S-------  HLT            9141
8000 0200 0000 4B31 4B31 4B31 4B31 4CC1 S-------  HLT            9145
8000 0200 0000 4B31 4B31 4B31 4B31 4CC1 S-------  HLT            9149
8000 0200 0000 4B31 4B31 4B31 4B31 4CC1 S-------  HLT            9153
8000 0200 0000 4B31 4B31 4B31 4B31 4CC1 S-------  HLT            9157
8000 0200 0000 4B31 4B31 4B31 4B31 4CC1 S-------  HLT            9161
8000 0200 0000 4B31 4B31 4B31 4B31 4CC1 S-------  HLT            9165
8000 0200 0000 4B31 4B31 4B31 4B31 4CC1 S-------  HLT            9169
8000 0200 0000 4B31 4B31 4B31 4B31 4CC1 S-------  HLT            9173
8000 0200 0000 4B31 4B31 4B31 4B31 4CC1 S-------  HLT            9177
8000 0200 0000 4B31 4B31 4B31 4B31 4CC1 S-------  HLT            9181
8000 0200 0000 4B31 4B31 4B31 4B31 4CC1 S-------  HLT            9185
8000 0200 0000 4B31 4B31 4B31 4B31 4CC1 S-------  HLT            9189
8000 0200 0000 4B31 4B31 4B31 4B31 4CC1 S-------  HLT            9193
8000 0200 0000 4B31 4B31 4B31 4B31 4CC1 S-------  HLT            9197
8000 0200 0000 4B31 4B31 4B31 4B31 4CC1 S-------  HLT            9201
8000 0200 0000 4B31 4B31 4B31 4B31 4CC1 S-------  HLT            9205
8000 0200 0000 4B31 4B31 4B31 4B31 4CC1 S-------  HLT            9209
8000 0200 0000 4B31 4B31 4B31 4B31 4CC1 S-------  HLT            9213
8000 0200 0000 4B31 4B31 4B31 4B31 4CC1 S-------  HLT            9217
8000 0200 0000 4B31 4B31 4B31 4B31 4CC1 S-------  HLT            9221
8000 0200 0000 4B31 4B31 4B31 4B31 4CC1 S-------  HLT            9225
8000 0200 0000 4B31 4B31 4B31 4B31 4CC1 S-------  HLT            9229
8000 0200 0000 4B31 4B31 4B31 4B31 4CC1 S-------  HLT            9233
8000 0200 0000 4B31 4B31 4B31 4B31 4CC1 S-------  HLT            9237
8000 0200 0000 4B31 4B31 4B31 4B31 4CC1 S-------  HLT            9241
8000 0200 0000 4B31 4B31 4B31 4B31 4CC1 S-------  HLT            9245
8000 0200 0000 4B31 4B31 4B31 4B31 4CC1 S-------  HLT            9249
8000 0200 0000 4B31 4B31 4B31 4B31 4CC1 S-------  HLT            9253
8000 0200 0000 4B31 4B31 4B31 4B31 4CC1 S-------  HLT            9257
8000 0200 0000 4B31 4B31 4B31 4B31 4CC1 S-------  HLT            9261
8000 0200 0000 4B31 4B31 4B31 4B31 4CC1 S-------  HLT            9265
8000 0200 0000 4B31 4B31 4B31 4B31 4CC1 S-------  HLT            9269
8000 0200 0000 4B31 4B31 4B31 4B31 4CC1 S-------  HLT            9273
8000 0200 0000 4B31 4B31 4B31 4B31 4CC1 S-------  HLT            9277
8000 0200 0000 4B31 4B31 4B31 4B31 4CC1 S-------  HLT            9281
8000 0200 0000 4B31 4B31 4B31 4B31 4CC1 S-------  HLT            9285
8000 0200 0000 4B31 4B31 4B31 4B31 4CC1 S-------  HLT            9289
8000 0200 0000 4B31 4B31 4B31 4B31 4CC1 S-------  HLT            9293
8000 0200 0000 4B31 4B31 4B31 4B31 4CC1 S-------  HLT            9297
8000 0200 0000 4B31 4B31 4B31 4B31 4CC1 S-------  HLT            9301
8000 0200 0000 4B31 4B31 4B31 4B31 4CC1 S-------  HLT            9305
8000 0200 0000 4B31 4B31 4B31 4B31 4CC1 S-------  HLT            9309
8000 0200 0000 4B31 4B31 4B31 4B31 4CC1 S-------  HLT            9313
8000 0200 0000 4B31 4B31 4B31 4B31 4CC1 S-------  HLT            9317
8000 0200 0000 4B31 4B31 4B31 4B31 4CC1 S-------  HLT            9321
8000 0200 0000 4B31 4B31 4B31 4B31 4CC1 S-------  HLT            9325
8000 0200 0000 4B31 4B31 4B31 4B31 4CC1 S-------  HLT            9329
8000 0200 0000 4B31 4B31 4B31 4B31 4CC1 S-------  HLT            9333
8000 0200 0000 4B31 4B31 4B31 4B31 4CC1 S-------  HLT            9337
8000 0200 0000 4B31 4B31 4B31 4B31 4CC1 S-------  HLT            9341
8000 0200 0000 4B31 4B31 4B31 4B31 4CC1 S-------  HLT            9345
8000 0200 0000 4B31 4B31 4B31 4B31 4CC1 S-------  HLT            9349
8000 0200 0000 4B31 4B31 4B31 4B31 4CC1 S-------  HLT            9353
8000 0200 0000 4B31 4B31 4B31 4B31 4CC1 S-------  HLT            9357
8000 0200 0000 4B31 4B31 4B31 4B31 4CC1 S-------  HLT            9361
8000 0200 0000 4B31 4B31 4B31 4B31 4CC1 S-------  HLT            9365
8000 0200 0000 4B31 4B31 4B31 4B31 4CC1 S-------  HLT            9369
8000 0200 0000 4B31 4B31 4B31 4B31 4CC1 S-------  HLT            9373
8000 0200 0000 4B31 4B31 4B31 4B31 4CC1 S-------  HLT            9377
8000 0200 0000 4B31 4B31 4B31 4B31 4CC1 S-------  HLT            9381
8000 0200 0000 4B31 4B31 4B31 4B31 4CC1 S-------  HLT            9385
8000 0200 0000 4B31 4B31 4B31 4B31 4CC1 S-------  HLT            9389
8000 0200 0000 4B31 4B31 4B31 4B31 4CC1 S-------  HLT            9393
8000 0200 0000 4B31 4B31 4B31 4B31 4CC1 S-------  HLT            9397
8000 0200 0000 4B31 4B31 4B31 4B31 4CC1 S-------  HLT            9401
8000 0200 0000 4B31 4B31 4B31 4B31 4CC1 S-------  HLT            9405
8000 0200 0000 4B31 4B31 4B31 4B31 4CC1 S-------  HLT            9409
8000 0200 0000 4B31 4B31 4B31 4B31 4CC1 S-------  HLT            9413
8000 0200 0000 4B31 4B31 4B31 4B31 4CC1 S-------  HLT            9417
8000 0200 0000 4B31 4B31 4B31 4B31 4CC1 S-------  HLT            9421
8000 0200 0000 4B31 4B31 4B31 4B31 4CC1 S-------  HLT            9425
8000 0200 0000 4B31 4B31 4B31 4B31 4CC1 S-------  HLT            9429
8000 0200 0000 4B31 4B31 4B31 4B31 4CC1 S-------  HLT            9433
8000 0200 0000 4B31 4B31 4B31 4B31 4CC1 S-------  HLT            9437
8000 0200 0000 4B31 4B31 4B31 4B31 4CC1 S-------  HLT            9441
8000 0200 0000 4B31 4B31 4B31 4B31 4CC1 S-------  HLT            9445
8000 0200 0000 4B31 4B31 4B31 4B31 4CC1 S-------  HLT            9449
8000 0200 0000 4B31 4B31 4B31 4B31 4CC1 S-------  HLT            9453
8000 0200 0000 4B31 4B31 4B31 4B31 4CC1 S-------  HLT            9457
8000 0200 0000 4B31 4B31 4B31 4B31 4CC1 S-------  HLT            9461
8000 0200 0000 4B31 4B31 4B31 4B31 4CC1 S-------  HLT            9465
8000 0200 0000 4B31 4B31 4B31 4B31 4CC1 S-------  HLT            9469
8000 0200 0000 4B31 4B31 4B31 4B31 4CC1 S-------  HLT            9473
8000 0200 0000 4B31 4B31 4B31 4B31 4CC1 S-------  HLT            9477
8000 0200 0000 4B31 4B31 4B31 4B31 4CC1 S-------  HLT            9481
8000 0200 0000 4B31 4B31 4B31 4B31 4CC1 S-------  HLT            9485
8000 0200 0000 4B31 4B31 4B31 4B31 4CC1 S-------  HLT            9489
8000 0200 0000 4B31 4B31 4B31 4B31 4CC1 S-------  HLT            9493
8000 0200 0000 4B31 4B31 4B31 4B31 4CC1 S-------  HLT            9497
8000 0200 0000 4B31 4B31 4B31 4B31 4CC1 S-------  HLT            9501
8000 0200 0000 4B31 4B31 4B31 4B31 4CC1 S-------  HLT            9505
8000 0200 0000 4B31 4B31 4B31 4B31 4CC1 S-------  HLT            9509
8000 0200 0000 4B31 4B31 4B31 4B31 4CC1 S-------  HLT            9513
8000 0200 0000 4B31 4B31 4B31 4B31 4CC1 S-------  HLT            9517
8000 0200 0000 4B31 4B31 4B31 4B31 4CC1 S-------  HLT            9521
8000 0200 0000 4B31 4B31 4B31 4B31 4CC1 S-------  HLT            9525
8000 0200 0000 4B31 4B31 4B31 4B31 4CC1 S-------  HLT            9529
8000 0200 0000 4B31 4B31 4B31 4B31 4CC1 S-------  HLT            9533
8000 0200 0000 4B31 4B31 4B31 4B31 4CC1 S-------  HLT            9537
8000 0200 0000 4B31 4B31 4B31 4B31 4CC1 S-------  HLT            9541
8000 0200 0000 4B31 4B31 4B31 4B31 4CC1 S-------  HLT            9545
8000 0200 0000 4B31 4B31 4B31 4B31 4CC1 S-------  HLT            9549
8000 0200 0000 4B31 4B31 4B31 4B31 4CC1 S-------  HLT            9553
8000 0200 0000 4B31 4B31 4B31 4B31 4CC1 S-------  HLT            9557
8000 0200 0000 4B31 4B31 4B31 4B31 4CC1 S-------  HLT            9561
8000 0200 0000 4B31 4B31 4B31 4B31 4CC1 S-------  HLT            9565
8000 0200 0000 4B31 4B31 4B31 4B31 4CC1 S-------  HLT            9569
8000 0200 0000 4B31 4B31 4B31 4B31 4CC1 S-------  HLT            9573
8000 0200 0000 4B31 4B31 4B31 4B31 4CC1 S-------  HLT            9577
8000 0200 0000 4B31 4B31 4B31 4B31 4CC1 S-------  HLT            9581
8000 0200 0000 4B31 4B31 4B31 4B31 4CC1 S-------  HLT            9585
8000 0200 0000 4B31 4B31 4B31 4B31 4CC1 S-------  HLT            9589
8000 0200 0000 4B31 4B31 4B31 4B31 4CC1 S-------  HLT            9593
8000 0200 0000 4B31 4B31 4B31 4B31 4CC1 S-------  HLT            9597
8000 0200 0000 4B31 4B31 4B31 4B31 4CC1 S-------  HLT            9601
8000 0200 0000 4B31 4B31 4B31 4B31 4CC1 S-------  HLT            9605
8000 0200 0000 4B31 4B31 4B31 4B31 4CC1 S-------  HLT            9609
8000 0200 0000 4B31 4B31 4B31 4B31 4CC1 S-------  HLT            9613
8000 0200 0000 4B31 4B31 4B31 4B31 4CC1 S-------  HLT            9617
8000 0200 0000 4B31 4B31 4B31 4B31 4CC1 S-------  HLT            9621
8000 0200 0000 4B31 4B31 4B31 4B31 4CC1 S-------  HLT            9625
8000 0200 0000 4B31 4B31 4B31 4B31 4CC1 S-------  HLT            9629
8000 0200 0000 4B31 4B31 4B31 4B31 4CC1 S-------  HLT            9633
8000 0200 0000 4B31 4B31 4B31 4B31 4CC1 S-------  HLT            9637
8000 0200 0000 4B31 4B31 4B31 4B31 4CC1 S-------  HLT            9641
8000 0200 0000 4B31 4B31 4B31 4B31 4CC1 S-------  HLT            9645
8000 0200 0000 4B31 4B31 4B31 4B31 4CC1 S-------  HLT            9649
8000 0200 0000 4B31 4B31 4B31 4B31 4CC1 S-------  HLT            9653
8000 0200 0000 4B31 4B31 4B31 4B31 4CC1 S-------  HLT            9657
8000 0200 0000 4B31 4B31 4B31 4B31 4CC1 S-------  HLT            9661
8000 0200 0000 4B31 4B31 4B31 4B31 4CC1 S-------  HLT            9665
8000 0200 0000 4B31 4B31 4B31 4B31 4CC1 S-------  HLT            9669
8000 0200 0000 4B31 4B31 4B31 4B31 4CC1 S-------  HLT            9673
8000 0200 0000 4B31 4B31 4B31 4B31 4CC1 S-------  HLT            9677
8000 0200 0000 4B31 4B31 4B31 4B31 4CC1 S-------  HLT            9681
8000 0200 0000 4B31 4B31 4B31 4B31 4CC1 S-------  HLT            9685
8000 0200 0000 4B31 4B31 4B31 4B31 4CC1 S-------  HLT            9689
8000 0200 0000 4B31 4B31 4B31 4B31 4CC1 S-------  HLT            9693
8000 0200 0000 4B31 4B31 4B31 4B31 4CC1 S-------  HLT            9697
8000 0200 0000 4B31 4B31 4B31 4B31 4CC1 S-------  HLT            9701
8000 0200 0000 4B31 4B31 4B31 4B31 4CC1 S-------  HLT            9705
8000 0200 0000 4B31 4B31 4B31 4B31 4CC1 S-------  HLT            9709
8000 0200 0000 4B31 4B31 4B31 4B31 4CC1 S-------  HLT            9713
8000 0200 0000 4B31 4B31 4B31 4B31 4CC1 S-------  HLT            9717
8000 0200 0000 4B31 4B31 4B31 4B31 4CC1 S-------  HLT            9721
8000 0200 0000 4B31 4B31 4B31 4B31 4CC1 S-------  HLT            9725
8000 0200 0000 4B31 4B31 4B31 4B31 4CC1 S-------  HLT            9729
8000 0200 0000 4B31 4B31 4B31 4B31 4CC1 S-------  HLT            9733
8000 0200 0000 4B31 4B31 4B31 4B31 4CC1 S-------  HLT            9737
8000 0200 0000 4B31 4B31 4B31 4B31 4CC1 S-------  HLT            9741
8000 0200 0000 4B31 4B31 4B31 4B31 4CC1 S-------  HLT            9745
8000 0200 0000 4B31 4B31 4B31 4B31 4CC1 S-------  HLT            9749
8000 0200 0000 4B31 4B31 4B31 4B31 4CC1 S-------  HLT            9753
8000 0200 0000 4B31 4B31 4B31 4B31 4CC1 S-------  HLT            9757
8000 0200 0000 4B31 4B31 4B31 4B31 4CC1 S-------  HLT            9761
8000 0200 0000 4B31 4B31 4B31 4B31 4CC1 S-------  HLT            9765
8000 0200 0000 4B31 4B31 4B31 4B31 4CC1 S-------  HLT            9769
8000 0200 0000 4B31 4B31 4B31 4B31 4CC1 S-------  HLT            9773
8000 0200 0000 4B31 4B31 4B31 4B31 4CC1 S-------  HLT            9777
8000 0200 0000 4B31 4B31 4B31 4B31 4CC1 S-------  HLT            9781
8000 0200 0000 4B31 4B31 4B31 4B31 4CC1 S-------  HLT            9785
8000 0200 0000 4B31 4B31 4B31 4B31 4CC1 S-------  HLT            9789
8000 0200 0000 4B31 4B31 4B31 4B31 4CC1 S-------  HLT            9793
8000 0200 0000 4B31 4B31 4B31 4B31 4CC1 S-------  HLT            9797
8000 0200 0000 4B31 4B31 4B31 4B31 4CC1 S-------  HLT            9801
8000 0200 0000 4B31 4B31 4B31 4B31 4CC1 S-------  HLT            9805
8000 0200 0000 4B31 4B31 4B31 4B31 4CC1 S-------  HLT            9809
8000 0200 0000 4B31 4B31 4B31 4B31 4CC1 S-------  HLT            9813
8000 0200 0000 4B31 4B31 4B31 4B31 4CC1 S-------  HLT            9817
8000 0200 0000 4B31 4B31 4B31 4B31 4CC1 S-------  HLT            9821
8000 0200 0000 4B31 4B31 4B31 4B31 4CC1 S-------  HLT            9825
8000 0200 0000 4B31 4B31 4B31 4B31 4CC1 S-------  HLT            9829
8000 0200 0000 4B31 4B31 4B31 4B31 4CC1 S-------  HLT            9833
8000 0200 0000 4B31 4B31 4B31 4B31 4CC1 S-------  HLT            9837
8000 0200 0000 4B31 4B31 4B31 4B31 4CC1 S-------  HLT            9841
8000 0200 0000 4B31 4B31 4B31 4B31 4CC1 S-------  HLT            9845
8000 0200 0000 4B31 4B31 4B31 4B31 4CC1 S-------  HLT            9849
8000 0200 0000 4B31 4B31 4B31 4B31 4CC1 S-------  HLT            9853
8000 0200 0000 4B31 4B31 4B31 4B31 4CC1 S-------  HLT            9857
8000 0200 0000 4B31 4B31 4B31 4B31 4CC1 S-------  HLT            9861
8000 0200 0000 4B31 4B31 4B31 4B31 4CC1 S-------  HLT            9865
8000 0200 0000 4B31 4B31 4B31 4B31 4CC1 S-------  HLT            9869
8000 0200 0000 4B31 4B31 4B31 4B31 4CC1 S-------  HLT            9873
8000 0200 0000 4B31 4B31 4B31 4B31 4CC1 S-------  HLT            9877
8000 0200 0000 4B31 4B31 4B31 4B31 4CC1 S-------  HLT            9881
8000 0200 0000 4B31 4B31 4B31 4B31 4CC1 S-------  HLT            9885
8000 0200 0000 4B31 4B31 4B31 4B31 4CC1 S-------  HLT            9889
8000 0200 0000 4B31 4B31 4B31 4B31 4CC1 S-------  HLT            9893
8000 0200 0000 4B31 4B31 4B31 4B31 4CC1 S-------  HLT            9897
8000 0200 0000 4B31 4B31 4B31 4B31 4CC1 S-------  HLT            9901
8000 0200 0000 4B31 4B31 4B31 4B31 4CC1 S-------  HLT            9905
8000 0200 0000 4B31 4B31 4B31 4B31 4CC1 S-------  HLT            9909
8000 0200 0000 4B31 4B31 4B31 4B31 4CC1 S-------  HLT            9913
8000 0200 0000 4B31 4B31 4B31 4B31 4CC1 S-------  HLT            9917
8000 0200 0000 4B31 4B31 4B31 4B31 4CC1 S-------  HLT            9921
8000 0200 0000 4B31 4B31 4B31 4B31 4CC1 S-------  HLT            9925
8000 0200 0000 4B31 4B31 4B31 4B31 4CC1 S-------  HLT            9929
8000 0200 0000 4B31 4B31 4B31 4B31 4CC1 S-------  HLT            9933
8000 0200 0000 4B31 4B31 4B31 4B31 4CC1 S-------  HLT            9937
8000 0200 0000 4B31 4B31 4B31 4B31 4CC1 S-------  HLT            9941
8000 0200 0000 4B31 4B31 4B31 4B31 4CC1 S-------  HLT            9945
8000 0200 0000 4B31 4B31 4B31 4B31 4CC1 S-------  HLT            9949
8000 0200 0000 4B31 4B31 4B31 4B31 4CC1 S-------  HLT            9953
8000 0200 0000 4B31 4B31 4B31 4B31 4CC1 S-------  HLT            9957
8000 0200 0000 4B31 4B31 4B31 4B31 4CC1 S-------  HLT            9961
8000 0200 0000 4B31 4B31 4B31 4B31 4CC1 S-------  HLT            9965
8000 0200 0000 4B31 4B31 4B31 4B31 4CC1 S-------  HLT            9969
8000 0200 0000 4B31 4B31 4B31 4B31 4CC1 S-------  HLT            9973
8000 0200 0000 4B31 4B31 4B31 4B31 4CC1 S-------  HLT            9977
8000 0200 0000 4B31 4B31 4B31 4B31 4CC1 S-------  HLT            9981
8000 0200 0000 4B31 4B31 4B31 4B31 4CC1 S-------  HLT            9985
8000 0200 0000 4B31 4B31 4B31 4B31 4CC1 S-------  HLT            9989
8000 0200 0000 4B31 4B31 4B31 4B31 4CC1 S-------  HLT            9993
8000 0200 0000 4B31 4B31 4B31 4B31 4CC1 S-------  HLT            9997
8000 0200 0000 4B31 4B31 4B31 4B31 4CC1 S-------  HLT           10001
8000 0200 0000 4B31 4B31 4B31 4B31 4CC1 S-------  HLT           10005
8000 0200 0000 4B31 4B31 4B31 4B31 4CC1 S-------  HLT           10009
8000 0200 0000 4B31 4B31 4B31 4B31 4CC1 S-------  HLT           10013
8000 0200 0000 4B31 4B31 4B31 4B31 4CC1 S-------  HLT           10017
8000 0200 0000 4B31 4B31 4B31 4B31 4CC1 S-------  HLT           10021
8000 0200 0000 4B31 4B31 4B31 4B31 4CC1 S-------  HLT           10025
8000 0200 0000 4B31 4B31 4B31 4B31 4CC1 S-------  HLT           10029
8000 0200 0000 4B31 4B31 4B31 4B31 4CC1 S-------  HLT           10033
8000 0200 0000 4B31 4B31 4B31 4B31 4CC1 S-------  HLT           10037
8000 0200 0000 4B31 4B31 4B31 4B31 4CC1 S-------  HLT           10041
8000 0200 0000 4B31 4B31 4B31 4B31 4CC1 S-------  HLT           10045
8000 0200 0000 4B31 4B31 4B31 4B31 4CC1 S-------  HLT           10049
8000 0200 0000 4B31 4B31 4B31 4B31 4CC1 S-------  HLT           10053
8000 0200 0000 4B31 4B31 4B31 4B31 4CC1 S-------  HLT           10057
8000 0200 0000 4B31 4B31 4B31 4B31 4CC1 S-------  HLT           10061
8000 0200 0000 4B31 4B31 4B31 4B31 4CC1 S-------  HLT           10065
8000 0200 0000 4B31 4B31 4B31 4B31 4CC1 S-------  HLT           10069
8000 0200 0000 4B31 4B31 4B31 4B31 4CC1 S-------  HLT           10073
8000 0200 0000 4B31 4B31 4B31 4B31 4CC1 S-------  HLT           10077
8000 0200 0000 4B31 4B31 4B31 4B31 4CC1 S-------  HLT           10081
8000 0200 0000 4B31 4B31 4B31 4B31 4CC1 S-------  HLT           10085
8000 0200 0000 4B31 4B31 4B31 4B31 4CC1 S-------  HLT           10089
8000 0200 0000 4B31 4B31 4B31 4B31 4CC1 S-------  HLT           10093
8000 0200 0000 4B31 4B31 4B31 4B31 4CC1 S-------  HLT           10097
8000 0200 0000 4B31 4B31 4B31 4B31 4CC1 S-------  HLT           10101
8000 0200 0000 4B31 4B31 4B31 4B31 4CC1 S-------  HLT           10105
8000 0200 0000 4B31 4B31 4B31 4B31 4CC1 S-------  HLT           10109
8000 0200 0000 4B31 4B31 4B31 4B31 4CC1 S-------  HLT           10113
8000 0200 0000 4B31 4B31 4B31 4B31 4CC1 S-------  HLT           10117
8000 0200 0000 4B31 4B31 4B31 4B31 4CC1 S-------  HLT           10121
8000 0200 0000 4B31 4B31 4B31 4B31 4CC1 S-------  HLT           10125
8000 0200 0000 4B31 4B31 4B31 4B31 4CC1 S-------  HLT           10129
8000 0200 0000 4B31 4B31 4B31 4B31 4CC1 S-------  HLT           10133
8000 0200 0000 4B31 4B31 4B31 4B31 4CC1 S-------  HLT           10137
8000 0200 0000 4B31 4B31 4B31 4B31 4CC1 S-------  HLT           10141
8000 0200 0000 4B31 4B31 4B31 4B31 4CC1 S-------  HLT           10145
8000 0200 0000 4B31 4B31 4B31 4B31 4CC1 S-------  HLT           10149
8000 0200 0000 4B31 4B31 4B31 4B31 4CC1 S-------  HLT           10153
8000 0200 0000 4B31 4B31 4B31 4B31 4CC1 S-------  HLT           10157
8000 0200 0000 4B31 4B31 4B31 4B31 4CC1 S-------  HLT           10161
8000 0200 0000 4B31 4B31 4B31 4B31 4CC1 S-------  HLT           10165
8000 0200 0000 4B31 4B31 4B31 4B31 4CC1 S-------  HLT           10169
8000 0200 0000 4B31 4B31 4B31 4B31 4CC1 S-------  HLT           10173
8000 0200 0000 4B31 4B31 4B31 4B31 4CC1 S-------  HLT           10177
8000 0200 0000 4B31 4B31 4B31 4B31 4CC1 S-------  HLT           10181
8000 0200 0000 4B31 4B31 4B31 4B31 4CC1 S-------  HLT           10185
8000 0200 0000 4B31 4B31 4B31 4B31 4CC1 S-------  HLT           10189
8000 0200 0000 4B31 4B31 4B31 4B31 4CC1 S-------  HLT           10193
8000 0200 0000 4B31 4B31 4B31 4B31 4CC1 S-------  HLT           10197
8000 0200 0000 4B31 4B31 4B31 4B31 4CC1 S-------  HLT           10201
8000 0200 0000 4B31 4B31 4B31 4B31 4CC1 S-------  HLT           10205
8000 0200 0000 4B31 4B31 4B31 4B31 4CC1 S-------  HLT           10209
8000 0200 0000 4B31 4B31 4B31 4B31 4CC1 S-------  HLT           10213
8000 0200 0000 4B31 4B31 4B31 4B31 4CC1 S-------  HLT           10217
8000 0200 0000 4B31 4B31 4B31 4B31 4CC1 S-------  HLT           10221
8000 0200 0000 4B31 4B31 4B31 4B31 4CC1 S-------  HLT           10225
8000 0200 0000 4B31 4B31 4B31 4B31 4CC1 S-------  HLT           10229
8000 0200 0000 4B31 4B31 4B31 4B31 4CC1 S-------  HLT           10233
8000 0200 0000 4B31 4B31 4B31 4B31 4CC1 S-------  HLT           10237
8000 0200 0000 4B31 4B31 4B31 4B31 4CC1 S-------  HLT           10241
8000 0200 0000 4B31 4B31 4B31 4B31 4CC1 S-------  HLT           10245
8000 0200 0000 4B31 4B31 4B31 4B31 4CC1 S-------  HLT           10249
8000 0200 0000 4B31 4B31 4B31 4B31 4CC1 S-------  HLT           10253
8000 0200 0000 4B31 4B31 4B31 4B31 4CC1 S-------  HLT           10257
8000 0200 0000 4B31 4B31 4B31 4B31 4CC1 S-------  HLT           10261
8000 0200 0000 4B31 4B31 4B31 4B31 4CC1 S-------  HLT           10265
8000 0200 0000 4B31 4B31 4B31 4B31 4CC1 S-------  HLT           10269
8000 0200 0000 4B31 4B31 4B31 4B31 4CC1 S-------  HLT           10273
8000 0200 0000 4B31 4B31 4B31 4B31 4CC1 S-------  HLT           10277
8000 0200 0000 4B31 4B31 4B31 4B31 4CC1 S-------  HLT           10281
8000 0200 0000 4B31 4B31 4B31 4B31 4CC1 S-------  HLT           10285
8000 0200 0000 4B31 4B31 4B31 4B31 4CC1 S-------  HLT           10289
8000 0200 0000 4B31 4B31 4B31 4B31 4CC1 S-------  HLT           10293
8000 0200 0000 4B31 4B31 4B31 4B31 4CC1 S-------  HLT           10297
8000 0200 0000 4B31 4B31 4B31 4B31 4CC1 S-------  HLT           10301
8000 0200 0000 4B31 4B31 4B31 4B31 4CC1 S-------  HLT           10305
8000 0200 0000 4B31 4B31 4B31 4B31 4CC1 S-------  HLT           10309
8000 0200 0000 4B31 4B31 4B31 4B31 4CC1 S-------  HLT           10313
8000 0200 0000 4B31 4B31 4B31 4B31 4CC1 S-------  HLT           10317
8000 0200 0000 4B31 4B31 4B31 4B31 4CC1 S-------  HLT           10321
8000 0200 0000 4B31 4B31 4B31 4B31 4CC1 S-------  HLT           10325
8000 0200 0000 4B31 4B31 4B31 4B31 4CC1 S-------  HLT           10329
8000 0200 0000 4B31 4B31 4B31 4B31 4CC1 S-------  HLT           10333
8000 0200 0000 4B31 4B31 4B31 4B31 4CC1 S-------  HLT           10337
8000 0200 0000 4B31 4B31 4B31 4B31 4CC1 S-------  HLT           10341
8000 0200 0000 4B31 4B31 4B31 4B31 4CC1 S-------  HLT           10345
8000 0200 0000 4B31 4B31 4B31 4B31 4CC1 S-------  HLT           10349
8000 0200 0000 4B31 4B31 4B31 4B31 4CC1 S-------  HLT           10353
8000 0200 0000 4B31 4B31 4B31 4B31 4CC1 S-------  HLT           10357
8000 0200 0000 4B31 4B31 4B31 4B31 4CC1 S-------  HLT           10361
8000 0200 0000 4B31 4B31 4B31 4B31 4CC1 S-------  HLT           10365
8000 0200 0000 4B31 4B31 4B31 4B31 4CC1 S-------  HLT           10369
8000 0200 0000 4B31 4B31 4B31 4B31 4CC1 S-------  HLT           10373
8000 0200 0000 4B31 4B31 4B31 4B31 4CC1 S-------  HLT           10377
8000 0200 0000 4B31 4B31 4B31 4B31 4CC1 S-------  HLT           10381
8000 0200 0000 4B31 4B31 4B31 4B31 4CC1 S-------  HLT           10385
8000 0200 0000 4B31 4B31 4B31 4B31 4CC1 S-------  HLT           10389
8000 0200 0000 4B31 4B31 4B31 4B31 4CC1 S-------  HLT           10393
8000 0200 0000 4B31 4B31 4B31 4B31 4CC1 S-------  HLT           10397
8000 0200 0000 4B31 4B31 4B31 4B31 4CC1 S-------  HLT           10401
8000 0200 0000 4B31 4B31 4B31 4B31 4CC1 S-------  HLT           10405
8000 0200 0000 4B31 4B31 4B31 4B31 4CC1 S-------  HLT           10409
8000 0200 0000 4B31 4B31 4B31 4B31 4CC1 S-------  HLT           10413
8000 0200 0000 4B31 4B31 4B31 4B31 4CC1 S-------  HLT           10417
8000 0200 0000 4B31 4B31 4B31 4B31 4CC1 S-------  HLT           10421
8000 0200 0000 4B31 4B31 4B31 4B31 4CC1 S-------  HLT           10425
8000 0200 0000 4B31 4B31 4B31 4B31 4CC1 S-------  HLT           10429
8000 0200 0000 4B31 4B31 4B31 4B31 4CC1 S-------  HLT           10433
8000 0200 0000 4B31 4B31 4B31 4B31 4CC1 S-------  HLT           10437
8000 0200 0000 4B31 4B31 4B31 4B31 4CC1 S-------  HLT           10441
8000 0200 0000 4B31 4B31 4B31 4B31 4CC1 S-------  HLT           10445
8000 0200 0000 4B31 4B31 4B31 4B31 4CC1 S-------  HLT           10449
8000 0200 0000 4B31 4B31 4B31 4B31 4CC1 S-------  HLT           10453
8000 0200 0000 4B31 4B31 4B31 4B31 4CC1 S-------  HLT           10457
8000 0200 0000 4B31 4B31 4B31 4B31 4CC1 S-------  HLT           10461
8000 0200 0000 4B31 4B31 4B31 4B31 4CC1 S-------  HLT           10465
8000 0200 0000 4B31 4B31 4B31 4B31 4CC1 S-------  HLT           10469
8000 0200 0000 4B31 4B31 4B31 4B31 4CC1 S-------  HLT           10473
8000 0200 0000 4B31 4B31 4B31 4B31 4CC1 S-------  HLT           10477
8000 0200 0000 4B31 4B31 4B31 4B31 4CC1 S-------  HLT           10481
8000 0200 0000 4B31 4B31 4B31 4B31 4CC1 S-------  HLT           10485
8000 0200 0000 4B31 4B31 4B31 4B31 4CC1 S-------  HLT           10489
8000 0200 0000 4B31 4B31 4B31 4B31 4CC1 S-------  HLT           10493
8000 0200 0000 4B31 4B31 4B31 4B31 4CC1 S-------  HLT           10497
8000 0200 0000 4B31 4B31 4B31 4B31 4CC1 S-------  HLT           10501
8000 0200 0000 4B31 4B31 4B31 4B31 4CC1 S-------  HLT           10505
8000 0200 0000 4B31 4B31 4B31 4B31 4CC1 S-------  HLT           10509
8000 0200 0000 4B31 4B31 4B31 4B31 4CC1 S-------  HLT           10513
8000 0200 0000 4B31 4B31 4B31 4B31 4CC1 S-------  HLT           10517
8000 0200 0000 4B31 4B31 4B31 4B31 4CC1 S-------  HLT           10521
8000 0200 0000 4B31 4B31 4B31 4B31 4CC1 S-------  HLT           10525
8000 0200 0000 4B31 4B31 4B31 4B31 4CC1 S-------  HLT           10529
8000 0200 0000 4B31 4B31 4B31 4B31 4CC1 S-------  HLT           10533
8000 0200 0000 4B31 4B31 4B31 4B31 4CC1 S-------  HLT           10537
8000 0200 0000 4B31 4B31 4B31 4B31 4CC1 S-------  HLT           10541
8000 0200 0000 4B31 4B31 4B31 4B31 4CC1 S-------  HLT           10545
8000 0200 0000 4B31 4B31 4B31 4B31 4CC1 S-------  HLT           10549
8000 0200 0000 4B31 4B31 4B31 4B31 4CC1 S-------  HLT           10553
8000 0200 0000 4B31 4B31 4B31 4B31 4CC1 S-------  HLT           10557
8000 0200 0000 4B31 4B31 4B31 4B31 4CC1 S-------  HLT           10561
8000 0200 0000 4B31 4B31 4B31 4B31 4CC1 S-------  HLT           10565
8000 0200 0000 4B31 4B31 4B31 4B31 4CC1 S-------  HLT           10569
8000 0200 0000 4B31 4B31 4B31 4B31 4CC1 S-------  HLT           10573
8000 0200 0000 4B31 4B31 4B31 4B31 4CC1 S-------  HLT           10577
8000 0200 0000 4B31 4B31 4B31 4B31 4CC1 S-------  HLT           10581
8000 0200 0000 4B31 4B31 4B31 4B31 4CC1 S-------  HLT           10585
8000 0200 0000 4B31 4B31 4B31 4B31 4CC1 S-------  HLT           10589
8000 0200 0000 4B31 4B31 4B31 4B31 4CC1 S-------  HLT           10593
8000 0200 0000 4B31 4B31 4B31 4B31 4CC1 S-------  HLT           10597
8000 0200 0000 4B31 4B31 4B31 4B31 4CC1 S-------  HLT           10601
8000 0200 0000 4B31 4B31 4B31 4B31 4CC1 S-------  HLT           10605
8000 0200 0000 4B31 4B31 4B31 4B31 4CC1 S-------  HLT           10609
8000 0200 0000 4B31 4B31 4B31 4B31 4CC1 S-------  HLT           10613
8000 0200 0000 4B31 4B31 4B31 4B31 4CC1 S-------  HLT           10617
8000 0200 0000 4B31 4B31 4B31 4B31 4CC1 S-------  HLT           10621
8000 0200 0000 4B31 4B31 4B31 4B31 4CC1 S-------  HLT           10625
8000 0200 0000 4B31 4B31 4B31 4B31 4CC1 S-------  HLT           10629
8000 0200 0000 4B31 4B31 4B31 4B31 4CC1 S-------  HLT           10633
8000 0200 0000 4B31 4B31 4B31 4B31 4CC1 S-------  HLT           10637
8000 0200 0000 4B31 4B31 4B31 4B31 4CC1 S-------  HLT           10641
8000 0200 0000 4B31 4B31 4B31 4B31 4CC1 S-------  HLT           10645
8000 0200 0000 4B31 4B31 4B31 4B31 4CC1 S-------  HLT           10649
8000 0200 0000 4B31 4B31 4B31 4B31 4CC1 S-------  HLT           10653
8000 0200 0000 4B31 4B31 4B31 4B31 4CC1 S-------  HLT           10657
8000 0200 0000 4B31 4B31 4B31 4B31 4CC1 S-------  HLT           10661
8000 0200 0000 4B31 4B31 4B31 4B31 4CC1 S-------  HLT           10665
8000 0200 0000 4B31 4B31 4B31 4B31 4CC1 S-------  HLT           10669
8000 0200 0000 4B31 4B31 4B31 4B31 4CC1 S-------  HLT           10673
8000 0200 0000 4B31 4B31 4B31 4B31 4CC1 S-------  HLT           10677
8000 0200 0000 4B31 4B31 4B31 4B31 4CC1 S-------  HLT           10681
8000 0200 0000 4B31 4B31 4B31 4B31 4CC1 S-------  HLT           10685
8000 0200 0000 4B31 4B31 4B31 4B31 4CC1 S-------  HLT           10689
8000 0200 0000 4B31 4B31 4B31 4B31 4CC1 S-------  HLT           10693
8000 0200 0000 4B31 4B31 4B31 4B31 4CC1 S-------  HLT           10697
8000 0200 0000 4B31 4B31 4B31 4B31 4CC1 S-------  HLT           10701
8000 0200 0000 4B31 4B31 4B31 4B31 4CC1 S-------  HLT           10705
8000 0200 0000 4B31 4B31 4B31 4B31 4CC1 S-------  HLT           10709
8000 0200 0000 4B31 4B31 4B31 4B31 4CC1 S-------  HLT           10713
8000 0200 0000 4B31 4B31 4B31 4B31 4CC1 S-------  HLT           10717
8000 0200 0000 4B31 4B31 4B31 4B31 4CC1 S-------  HLT           10721
8000 0200 0000 4B31 4B31 4B31 4B31 4CC1 S-------  HLT           10725
8000 0200 0000 4B31 4B31 4B31 4B31 4CC1 S-------  HLT           10729
8000 0200 0000 4B31 4B31 4B31 4B31 4CC1 S-------  HLT           10733
8000 0200 0000 4B31 4B31 4B31 4B31 4CC1 S-------  HLT           10737
8000 0200 0000 4B31 4B31 4B31 4B31 4CC1 S-------  HLT           10741
8000 0200 0000 4B31 4B31 4B31 4B31 4CC1 S-------  HLT           10745
8000 0200 0000 4B31 4B31 4B31 4B31 4CC1 S-------  HLT           10749
8000 0200 0000 4B31 4B31 4B31 4B31 4CC1 S-------  HLT           10753
8000 0200 0000 4B31 4B31 4B31 4B31 4CC1 S-------  HLT           10757
8000 0200 0000 4B31 4B31 4B31 4B31 4CC1 S-------  HLT           10761
8000 0200 0000 4B31 4B31 4B31 4B31 4CC1 S-------  HLT           10765
8000 0200 0000 4B31 4B31 4B31 4B31 4CC1 S-------  HLT           10769
8000 0200 0000 4B31 4B31 4B31 4B31 4CC1 S-------  HLT           10773
8000 0200 0000 4B31 4B31 4B31 4B31 4CC1 S-------  HLT           10777
8000 0200 0000 4B31 4B31 4B31 4B31 4CC1 S-------  HLT           10781
8000 0200 0000 4B31 4B31 4B31 4B31 4CC1 S-------  HLT           10785
8000 0200 0000 4B31 4B31 4B31 4B31 4CC1 S-------  HLT           10789
8000 0200 0000 4B31 4B31 4B31 4B31 4CC1 S-------  HLT           10793
8000 0200 0000 4B31 4B31 4B31 4B31 4CC1 S-------  HLT           10797
8000 0200 0000 4B31 4B31 4B31 4B31 4CC1 S-------  HLT           10801
8000 0200 0000 4B31 4B31 4B31 4B31 4CC1 S-------  HLT           10805
8000 0200 0000 4B31 4B31 4B31 4B31 4CC1 S-------  HLT           10809
8000 0200 0000 4B31 4B31 4B31 4B31 4CC1 S-------  HLT           10813
8000 0200 0000 4B31 4B31 4B31 4B31 4CC1 S-------  HLT           10817
8000 0200 0000 4B31 4B31 4B31 4B31 4CC1 S-------  HLT           10821
8000 0200 0000 4B31 4B31 4B31 4B31 4CC1 S-------  HLT           10825
8000 0200 0000 4B31 4B31 4B31 4B31 4CC1 S-------  HLT           10829
8000 0200 0000 4B31 4B31 4B31 4B31 4CC1 S-------  HLT           10833
8000 0200 0000 4B31 4B31 4B31 4B31 4CC1 S-------  HLT           10837
8000 0200 0000 4B31 4B31 4B31 4B31 4CC1 S-------  HLT           10841
8000 0200 0000 4B31 4B31 4B31 4B31 4CC1 S-------  HLT           10845
8000 0200 0000 4B31 4B31 4B31 4B31 4CC1 S-------  HLT           10849
8000 0200 0000 4B31 4B31 4B31 4B31 4CC1 S-------  HLT           10853
8000 0200 0000 4B31 4B31 4B31 4B31 4CC1 S-------  HLT           10857
8000 0200 0000 4B31 4B31 4B31 4B31 4CC1 S-------  HLT           10861
8000 0200 0000 4B31 4B31 4B31 4B31 4CC1 S-------  HLT           10865
8000 0200 0000 4B31 4B31 4B31 4B31 4CC1 S-------  HLT           10869
8000 0200 0000 4B31 4B31 4B31 4B31 4CC1 S-------  HLT           10873
8000 0200 0000 4B31 4B31 4B31 4B31 4CC1 S-------  HLT           10877
8000 0200 0000 4B31 4B31 4B31 4B31 4CC1 S-------  HLT           10881
8000 0200 0000 4B31 4B31 4B31 4B31 4CC1 S-------  HLT           10885
8000 0200 0000 4B31 4B31 4B31 4B31 4CC1 S-------  HLT           10889
8000 0200 0000 4B31 4B31 4B31 4B31 4CC1 S-------  HLT           10893
8000 0200 0000 4B31 4B31 4B31 4B31 4CC1 S-------  HLT           10897
8000 0200 0000 4B31 4B31 4B31 4B31 4CC1 S-------  HLT           10901
8000 0200 0000 4B31 4B31 4B31 4B31 4CC1 S-------  HLT           10905
8000 0200 0000 4B31 4B31 4B31 4B31 4CC1 S-------  HLT           10909
8000 0200 0000 4B31 4B31 4B31 4B31 4CC1 S-------  HLT           10913
8000 0200 0000 4B31 4B31 4B31 4B31 4CC1 S-------  HLT           10917
8000 0200 0000 4B31 4B31 4B31 4B31 4CC1 S-------  HLT           10921
8000 0200 0000 4B31 4B31 4B31 4B31 4CC1 S-------  HLT           10925
8000 0200 0000 4B31 4B31 4B31 4B31 4CC1 S-------  HLT           10929
8000 0200 0000 4B31 4B31 4B31 4B31 4CC1 S-------  HLT           10933
8000 0200 0000 4B31 4B31 4B31 4B31 4CC1 S-------  HLT           10937
8000 0200 0000 4B31 4B31 4B31 4B31 4CC1 S-------  HLT           10941
8000 0200 0000 4B31 4B31 4B31 4B31 4CC1 S-------  HLT           10945
8000 0200 0000 4B31 4B31 4B31 4B31 4CC1 S-------  HLT           10949
8000 0200 0000 4B31 4B31 4B31 4B31 4CC1 S-------  HLT           10953
8000 0200 0000 4B31 4B31 4B31 4B31 4CC1 S-------  HLT           10957
8000 0200 0000 4B31 4B31 4B31 4B31 4CC1 S-------  HLT           10961
8000 0200 0000 4B31 4B31 4B31 4B31 4CC1 S-------  HLT           10965
8000 0200 0000 4B31 4B31 4B31 4B31 4CC1 S-------  HLT           10969
8000 0200 0000 4B31 4B31 4B31 4B31 4CC1 S-------  HLT           10973
8000 0200 0000 4B31 4B31 4B31 4B31 4CC1 S-------  HLT           10977
8000 0200 0000 4B31 4B31 4B31 4B31 4CC1 S-------  HLT           10981
8000 0200 0000 4B31 4B31 4B31 4B31 4CC1 S-------  HLT           10985
8000 0200 0000 4B31 4B31 4B31 4B31 4CC1 S-------  HLT           10989
8000 0200 0000 4B31 4B31 4B31 4B31 4CC1 S-------  HLT           10993
8000 0200 0000 4B31 4B31 4B31 4B31 4CC1 S-------  HLT           10997
8000 0200 0000 4B31 4B31 4B31 4B31 4CC1 S-------  HLT           11001
8000 0200 0000 4B31 4B31 4B31 4B31 4CC1 S-------  HLT           11005
8000 0200 0000 4B31 4B31 4B31 4B31 4CC1 S-------  HLT           11009
8000 0200 0000 4B31 4B31 4B31 4B31 4CC1 S-------  HLT           11013
8000 0200 0000 4B31 4B31 4B31 4B31 4CC1 S-------  HLT           11017
8000 0200 0000 4B31 4B31 4B31 4B31 4CC1 S-------  HLT           11021
8000 0200 0000 4B31 4B31 4B31 4B31 4CC1 S-------  HLT           11025
8000 0200 0000 4B31 4B31 4B31 4B31 4CC1 S-------  HLT           11029
8000 0200 0000 4B31 4B31 4B31 4B31 4CC1 S-------  HLT           11033
8000 0200 0000 4B31 4B31 4B31 4B31 4CC1 S-------  HLT           11037
8000 0200 0000 4B31 4B31 4B31 4B31 4CC1 S-------  HLT           11041
8000 0200 0000 4B31 4B31 4B31 4B31 4CC1 S-------  HLT           11045
8000 0200 0000 4B31 4B31 4B31 4B31 4CC1 S-------  HLT           11049
8000 0200 0000 4B31 4B31 4B31 4B31 4CC1 S-------  HLT           11053
8000 0200 0000 4B31 4B31 4B31 4B31 4CC1 S-------  HLT           11057
8000 0200 0000 4B31 4B31 4B31 4B31 4CC1 S-------  HLT           11061
8000 0200 0000 4B31 4B31 4B31 4B31 4CC1 S-------  HLT           11065
8000 0200 0000 4B31 4B31 4B31 4B31 4CC1 S-------  HLT           11069
8000 0200 0000 4B31 4B31 4B31 4B31 4CC1 S-------  HLT           11073
8000 0200 0000 4B31 4B31 4B31 4B31 4CC1 S-------  HLT           11077
8000 0200 0000 4B31 4B31 4B31 4B31 4CC1 S-------  HLT           11081
8000 0200 0000 4B31 4B31 4B31 4B31 4CC1 S-------  HLT           11085
8000 0200 0000 4B31 4B31 4B31 4B31 4CC1 S-------  HLT           11089
8000 0200 0000 4B31 4B31 4B31 4B31 4CC1 S-------  HLT           11093
8000 0200 0000 4B31 4B31 4B31 4B31 4CC1 S-------  HLT           11097
8000 0200 0000 4B31 4B31 4B31 4B31 4CC1 S-------  HLT           11101
8000 0200 0000 4B31 4B31 4B31 4B31 4CC1 S-------  HLT           11105
8000 0200 0000 4B31 4B31 4B31 4B31 4CC1 S-------  HLT           11109
8000 0200 0000 4B31 4B31 4B31 4B31 4CC1 S-------  HLT           11113
8000 0200 0000 4B31 4B31 4B31 4B31 4CC1 S-------  HLT           11117
8000 0200 0000 4B31 4B31 4B31 4B31 4CC1 S-------  HLT           11121
8000 0200 0000 4B31 4B31 4B31 4B31 4CC1 S-------  HLT           11125
8000 0200 0000 4B31 4B31 4B31 4B31 4CC1 S-------  HLT           11129
8000 0200 0000 4B31 4B31 4B31 4B31 4CC1 S-------  HLT           11133
8000 0200 0000 4B31 4B31 4B31 4B31 4CC1 S-------  HLT           11137
8000 0200 0000 4B31 4B31 4B31 4B31 4CC1 S-------  HLT           11141
8000 0200 0000 4B31 4B31 4B31 4B31 4CC1 S-------  HLT           11145
8000 0200 0000 4B31 4B31 4B31 4B31 4CC1 S-------  HLT           11149
8000 0200 0000 4B31 4B31 4B31 4B31 4CC1 S-------  HLT           11153
8000 0200 0000 4B31 4B31 4B31 4B31 4CC1 S-------  HLT           11157
8000 0200 0000 4B31 4B31 4B31 4B31 4CC1 S-------  HLT           11161
8000 0200 0000 4B31 4B31 4B31 4B31 4CC1 S-------  HLT           11165
8000 0200 0000 4B31 4B31 4B31 4B31 4CC1 S-------  HLT           11169
8000 0200 0000 4B31 4B31 4B31 4B31 4CC1 S-------  HLT           11173
8000 0200 0000 4B31 4B31 4B31 4B31 4CC1 S-------  HLT           11177
8000 0200 0000 4B31 4B31 4B31 4B31 4CC1 S-------  HLT           11181
8000 0200 0000 4B31 4B31 4B31 4B31 4CC1 S-------  HLT           11185
8000 0200 0000 4B31 4B31 4B31 4B31 4CC1 S-------  HLT           11189
8000 0200 0000 4B31 4B31 4B31 4B31 4CC1 S-------  HLT           11193
8000 0200 0000 4B31 4B31 4B31 4B31 4CC1 S-------  HLT           11197
8000 0200 0000 4B31 4B31 4B31 4B31 4CC1 S-------  HLT           11201
8000 0200 0000 4B31 4B31 4B31 4B31 4CC1 S-------  HLT           11205
8000 0200 0000 4B31 4B31 4B31 4B31 4CC1 S-------  HLT           11209
8000 0200 0000 4B31 4B31 4B31 4B31 4CC1 S-------  HLT           11213
8000 0200 0000 4B31 4B31 4B31 4B31 4CC1 S-------  HLT           11217
8000 0200 0000 4B31 4B31 4B31 4B31 4CC1 S-------  HLT           11221
8000 0200 0000 4B31 4B31 4B31 4B31 4CC1 S-------  HLT           11225
8000 0200 0000 4B31 4B31 4B31 4B31 4CC1 S-------  HLT           11229
8000 0200 0000 4B31 4B31 4B31 4B31 4CC1 S-------  HLT           11233
8000 0200 0000 4B31 4B31 4B31 4B31 4CC1 S-------  HLT           11237
8000 0200 0000 4B31 4B31 4B31 4B31 4CC1 S-------  HLT           11241
8000 0200 0000 4B31 4B31 4B31 4B31 4CC1 S-------  HLT           11245
8000 0200 0000 4B31 4B31 4B31 4B31 4CC1 S-------  HLT           11249
8000 0200 0000 4B31 4B31 4B31 4B31 4CC1 S-------  HLT           11253
8000 0200 0000 4B31 4B31 4B31 4B31 4CC1 S-------  HLT           11257
8000 0200 0000 4B31 4B31 4B31 4B31 4CC1 S-------  HLT           11261
8000 0200 0000 4B31 4B31 4B31 4B31 4CC1 S-------  HLT           11265
8000 0200 0000 4B31 4B31 4B31 4B31 4CC1 S-------  HLT           11269
8000 0200 0000 4B31 4B31 4B31 4B31 4CC1 S-------  HLT           11273
8000 0200 0000 4B31 4B31 4B31 4B31 4CC1 S-------  HLT           11277
8000 0200 0000 4B31 4B31 4B31 4B31 4CC1 S-------  HLT           11281
8000 0200 0000 4B31 4B31 4B31 4B31 4CC1 S-------  HLT           11285
8000 0200 0000 4B31 4B31 4B31 4B31 4CC1 S-------  HLT           11289
8000 0200 0000 4B31 4B31 4B31 4B31 4CC1 S-------  HLT           11293
8000 0200 0000 4B31 4B31 4B31 4B31 4CC1 S-------  HLT           11297
8000 0200 0000 4B31 4B31 4B31 4B31 4CC1 S-------  HLT           11301
8000 0200 0000 4B31 4B31 4B31 4B31 4CC1 S-------  HLT           11305
8000 0200 0000 4B31 4B31 4B31 4B31 4CC1 S-------  HLT           11309
8000 0200 0000 4B31 4B31 4B31 4B31 4CC1 S-------  HLT           11313
8000 0200 0000 4B31 4B31 4B31 4B31 4CC1 S-------  HLT           11317
8000 0200 0000 4B31 4B31 4B31 4B31 4CC1 S-------  HLT           11321
8000 0200 0000 4B31 4B31 4B31 4B31 4CC1 S-------  HLT           11325
8000 0200 0000 4B31 4B31 4B31 4B31 4CC1 S-------  HLT           11329
8000 0200 0000 4B31 4B31 4B31 4B31 4CC1 S-------  HLT           11333
8000 0200 0000 4B31 4B31 4B31 4B31 4CC1 S-------  HLT           11337
8000 0200 0000 4B31 4B31 4B31 4B31 4CC1 S-------  HLT           11341
8000 0200 0000 4B31 4B31 4B31 4B31 4CC1 S-------  HLT           11345
8000 0200 0000 4B31 4B31 4B31 4B31 4CC1 S-------  HLT           11349
8000 0200 0000 4B31 4B31 4B31 4B31 4CC1 S-------  HLT           11353
8000 0200 0000 4B31 4B31 4B31 4B31 4CC1 S-------  HLT           11357
8000 0200 0000 4B31 4B31 4B31 4B31 4CC1 S-------  HLT           11361
8000 0200 0000 4B31 4B31 4B31 4B31 4CC1 S-------  HLT           11365
8000 0200 0000 4B31 4B31 4B31 4B31 4CC1 S-------  HLT           11369
8000 0200 0000 4B31 4B31 4B31 4B31 4CC1 S-------  HLT           11373
8000 0200 0000 4B31 4B31 4B31 4B31 4CC1 S-------  HLT           11377
8000 0200 0000 4B31 4B31 4B31 4B31 4CC1 S-------  HLT           11381
8000 0200 0000 4B31 4B31 4B31 4B31 4CC1 S-------  HLT           11385
8000 0200 0000 4B31 4B31 4B31 4B31 4CC1 S-------  HLT           11389
8000 0200 0000 4B31 4B31 4B31 4B31 4CC1 S-------  HLT           11393
8000 0200 0000 4B31 4B31 4B31 4B31 4CC1 S-------  HLT           11397
8000 0200 0000 4B31 4B31 4B31 4B31 4CC1 S-------  HLT           11401
8000 0200 0000 4B31 4B31 4B31 4B31 4CC1 S-------  HLT           11405
8000 0200 0000 4B31 4B31 4B31 4B31 4CC1 S-------  HLT           11409
8000 0200 0000 4B31 4B31 4B31 4B31 4CC1 S-------  HLT           11413
8000 0200 0000 4B31 4B31 4B31 4B31 4CC1 S-------  HLT           11417
8000 0200 0000 4B31 4B31 4B31 4B31 4CC1 S-------  HLT           11421
8000 0200 0000 4B31 4B31 4B31 4B31 4CC1 S-------  HLT           11425
8000 0200 0000 4B31 4B31 4B31 4B31 4CC1 S-------  HLT           11429
8000 0200 0000 4B31 4B31 4B31 4B31 4CC1 S-------  HLT           11433
8000 0200 0000 4B31 4B31 4B31 4B31 4CC1 S-------  HLT           11437
8000 0200 0000 4B31 4B31 4B31 4B31 4CC1 S-------  HLT           11441
8000 0200 0000 4B31 4B31 4B31 4B31 4CC1 S-------  HLT           11445
8000 0200 0000 4B31 4B31 4B31 4B31 4CC1 S-------  HLT           11449
8000 0200 0000 4B31 4B31 4B31 4B31 4CC1 S-------  HLT           11453
8000 0200 0000 4B31 4B31 4B31 4B31 4CC1 S-------  HLT           11457
8000 0200 0000 4B31 4B31 4B31 4B31 4CC1 S-------  HLT           11461
8000 0200 0000 4B31 4B31 4B31 4B31 4CC1 S-------  HLT           11465
8000 0200 0000 4B31 4B31 4B31 4B31 4CC1 S-------  HLT           11469
8000 0200 0000 4B31 4B31 4B31 4B31 4CC1 S-------  HLT           11473
8000 0200 0000 4B31 4B31 4B31 4B31 4CC1 S-------  HLT           11477
8000 0200 0000 4B31 4B31 4B31 4B31 4CC1 S-------  HLT           11481
8000 0200 0000 4B31 4B31 4B31 4B31 4CC1 S-------  HLT           11485
8000 0200 0000 4B31 4B31 4B31 4B31 4CC1 S-------  HLT           11489
8000 0200 0000 4B31 4B31 4B31 4B31 4CC1 S-------  HLT           11493
8000 0200 0000 4B31 4B31 4B31 4B31 4CC1 S-------  HLT           11497
8000 0200 0000 4B31 4B31 4B31 4B31 4CC1 S-------  HLT           11501
8000 0200 0000 4B31 4B31 4B31 4B31 4CC1 S-------  HLT           11505
8000 0200 0000 4B31 4B31 4B31 4B31 4CC1 S-------  HLT           11509
8000 0200 0000 4B31 4B31 4B31 4B31 4CC1 S-------  HLT           11513
8000 0200 0000 4B31 4B31 4B31 4B31 4CC1 S-------  HLT           11517
8000 0200 0000 4B31 4B31 4B31 4B31 4CC1 S-------  HLT           11521
8000 0200 0000 4B31 4B31 4B31 4B31 4CC1 S-------  HLT           11525
8000 0200 0000 4B31 4B31 4B31 4B31 4CC1 S-------  HLT           11529
8000 0200 0000 4B31 4B31 4B31 4B31 4CC1 S-------  HLT           11533
8000 0200 0000 4B31 4B31 4B31 4B31 4CC1 S-------  HLT           11537
8000 0200 0000 4B31 4B31 4B31 4B31 4CC1 S-------  HLT           11541
8000 0200 0000 4B31 4B31 4B31 4B31 4CC1 S-------  HLT           11545
8000 0200 0000 4B31 4B31 4B31 4B31 4CC1 S-------  HLT           11549
8000 0200 0000 4B31 4B31 4B31 4B31 4CC1 S-------  HLT           11553
8000 0200 0000 4B31 4B31 4B31 4B31 4CC1 S-------  HLT           11557
8000 0200 0000 4B31 4B31 4B31 4B31 4CC1 S-------  HLT           11561
8000 0200 0000 4B31 4B31 4B31 4B31 4CC1 S-------  HLT           11565
8000 0200 0000 4B31 4B31 4B31 4B31 4CC1 S-------  HLT           11569
8000 0200 0000 4B31 4B31 4B31 4B31 4CC1 S-------  HLT           11573
8000 0200 0000 4B31 4B31 4B31 4B31 4CC1 S-------  HLT           11577
8000 0200 0000 4B31 4B31 4B31 4B31 4CC1 S-------  HLT           11581
8000 0200 0000 4B31 4B31 4B31 4B31 4CC1 S-------  HLT           11585
8000 0200 0000 4B31 4B31 4B31 4B31 4CC1 S-------  HLT           11589
8000 0200 0000 4B31 4B31 4B31 4B31 4CC1 S-------  HLT           11593
8000 0200 0000 4B31 4B31 4B31 4B31 4CC1 S-------  HLT           11597
8000 0200 0000 4B31 4B31 4B31 4B31 4CC1 S-------  HLT           11601
8000 0200 0000 4B31 4B31 4B31 4B31 4CC1 S-------  HLT           11605
8000 0200 0000 4B31 4B31 4B31 4B31 4CC1 S-------  HLT           11609
8000 0200 0000 4B31 4B31 4B31 4B31 4CC1 S-------  HLT           11613
8000 0200 0000 4B31 4B31 4B31 4B31 4CC1 S-------  HLT           11617
8000 0200 0000 4B31 4B31 4B31 4B31 4CC1 S-------  HLT           11621
8000 0200 0000 4B31 4B31 4B31 4B31 4CC1 S-------  HLT           11625
8000 0200 0000 4B31 4B31 4B31 4B31 4CC1 S-------  HLT           11629
8000 0200 0000 4B31 4B31 4B31 4B31 4CC1 S-------  HLT           11633
8000 0200 0000 4B31 4B31 4B31 4B31 4CC1 S-------  HLT           11637
8000 0200 0000 4B31 4B31 4B31 4B31 4CC1 S-------  HLT           11641
8000 0200 0000 4B31 4B31 4B31 4B31 4CC1 S-------  HLT           11645
8000 0200 0000 4B31 4B31 4B31 4B31 4CC1 S-------  HLT           11649
8000 0200 0000 4B31 4B31 4B31 4B31 4CC1 S-------  HLT           11653
8000 0200 0000 4B31 4B31 4B31 4B31 4CC1 S-------  HLT           11657
8000 0200 0000 4B31 4B31 4B31 4B31 4CC1 S-------  HLT           11661
8000 0200 0000 4B31 4B31 4B31 4B31 4CC1 S-------  HLT           11665
8000 0200 0000 4B31 4B31 4B31 4B31 4CC1 S-------  HLT           11669
8000 0200 0000 4B31 4B31 4B31 4B31 4CC1 S-------  HLT           11673
8000 0200 0000 4B31 4B31 4B31 4B31 4CC1 S-------  HLT           11677
8000 0200 0000 4B31 4B31 4B31 4B31 4CC1 S-------  HLT           11681
8000 0200 0000 4B31 4B31 4B31 4B31 4CC1 S-------  HLT           11685
8000 0200 0000 4B31 4B31 4B31 4B31 4CC1 S-------  HLT           11689
8000 0200 0000 4B31 4B31 4B31 4B31 4CC1 S-------  HLT           11693
8000 0200 0000 4B31 4B31 4B31 4B31 4CC1 S-------  HLT           11697
8000 0200 0000 4B31 4B31 4B31 4B31 4CC1 S-------  HLT           11701
8000 0200 0000 4B31 4B31 4B31 4B31 4CC1 S-------  HLT           11705
8000 0200 0000 4B31 4B31 4B31 4B31 4CC1 S-------  HLT           11709
8000 0200 0000 4B31 4B31 4B31 4B31 4CC1 S-------  HLT           11713
8000 0200 0000 4B31 4B31 4B31 4B31 4CC1 S-------  HLT           11717
8000 0200 0000 4B31 4B31 4B31 4B31 4CC1 S-------  HLT           11721
8000 0200 0000 4B31 4B31 4B31 4B31 4CC1 S-------  HLT           11725
8000 0200 0000 4B31 4B31 4B31 4B31 4CC1 S-------  HLT           11729
8000 0200 0000 4B31 4B31 4B31 4B31 4CC1 S-------  HLT           11733
8000 0200 0000 4B31 4B31 4B31 4B31 4CC1 S-------  HLT           11737
8000 0200 0000 4B31 4B31 4B31 4B31 4CC1 S-------  HLT           11741
8000 0200 0000 4B31 4B31 4B31 4B31 4CC1 S-------  HLT           11745
8000 0200 0000 4B31 4B31 4B31 4B31 4CC1 S-------  HLT           11749
8000 0200 0000 4B31 4B31 4B31 4B31 4CC1 S-------  HLT           11753
8000 0200 0000 4B31 4B31 4B31 4B31 4CC1 S-------  HLT           11757
8000 0200 0000 4B31 4B31 4B31 4B31 4CC1 S-------  HLT           11761
8000 0200 0000 4B31 4B31 4B31 4B31 4CC1 S-------  HLT           11765
8000 0200 0000 4B31 4B31 4B31 4B31 4CC1 S-------  HLT           11769
8000 0200 0000 4B31 4B31 4B31 4B31 4CC1 S-------  HLT           11773
8000 0200 0000 4B31 4B31 4B31 4B31 4CC1 S-------  HLT           11777
8000 0200 0000 4B31 4B31 4B31 4B31 4CC1 S-------  HLT           11781
8000 0200 0000 4B31 4B31 4B31 4B31 4CC1 S-------  HLT           11785
8000 0200 0000 4B31 4B31 4B31 4B31 4CC1 S-------  HLT           11789
8000 0200 0000 4B31 4B31 4B31 4B31 4CC1 S-------  HLT           11793
8000 0200 0000 4B31 4B31 4B31 4B31 4CC1 S-------  HLT           11797
8000 0200 0000 4B31 4B31 4B31 4B31 4CC1 S-------  HLT           11801
8000 0200 0000 4B31 4B31 4B31 4B31 4CC1 S-------  HLT           11805
8000 0200 0000 4B31 4B31 4B31 4B31 4CC1 S-------  HLT           11809
8000 0200 0000 4B31 4B31 4B31 4B31 4CC1 S-------  HLT           11813
8000 0200 0000 4B31 4B31 4B31 4B31 4CC1 S-------  HLT           11817
8000 0200 0000 4B31 4B31 4B31 4B31 4CC1 S-------  HLT           11821
8000 0200 0000 4B31 4B31 4B31 4B31 4CC1 S-------  HLT           11825
8000 0200 0000 4B31 4B31 4B31 4B31 4CC1 S-------  HLT           11829
8000 0200 0000 4B31 4B31 4B31 4B31 4CC1 S-------  HLT           11833
8000 0200 0000 4B31 4B31 4B31 4B31 4CC1 S-------  HLT           11837
8000 0200 0000 4B31 4B31 4B31 4B31 4CC1 S-------  HLT           11841
8000 0200 0000 4B31 4B31 4B31 4B31 4CC1 S-------  HLT           11845
8000 0200 0000 4B31 4B31 4B31 4B31 4CC1 S-------  HLT           11849
8000 0200 0000 4B31 4B31 4B31 4B31 4CC1 S-------  HLT           11853
8000 0200 0000 4B31 4B31 4B31 4B31 4CC1 S-------  HLT           11857
8000 0200 0000 4B31 4B31 4B31 4B31 4CC1 S-------  HLT           11861
8000 0200 0000 4B31 4B31 4B31 4B31 4CC1 S-------  HLT           11865
8000 0200 0000 4B31 4B31 4B31 4B31 4CC1 S-------  HLT           11869
8000 0200 0000 4B31 4B31 4B31 4B31 4CC1 S-------  HLT           11873
8000 0200 0000 4B31 4B31 4B31 4B31 4CC1 S-------  HLT           11877
8000 0200 0000 4B31 4B31 4B31 4B31 4CC1 S-------  HLT           11881
8000 0200 0000 4B31 4B31 4B31 4B31 4CC1 S-------  HLT           11885
8000 0200 0000 4B31 4B31 4B31 4B31 4CC1 S-------  HLT           11889
8000 0200 0000 4B31 4B31 4B31 4B31 4CC1 S-------  HLT           11893
8000 0200 0000 4B31 4B31 4B31 4B31 4CC1 S-------  HLT           11897
8000 0200 0000 4B31 4B31 4B31 4B31 4CC1 S-------  HLT           11901
8000 0200 0000 4B31 4B31 4B31 4B31 4CC1 S-------  HLT           11905
8000 0200 0000 4B31 4B31 4B31 4B31 4CC1 S-------  HLT           11909
8000 0200 0000 4B31 4B31 4B31 4B31 4CC1 S-------  HLT           11913
8000 0200 0000 4B31 4B31 4B31 4B31 4CC1 S-------  HLT           11917
8000 0200 0000 4B31 4B31 4B31 4B31 4CC1 S-------  HLT           11921
8000 0200 0000 4B31 4B31 4B31 4B31 4CC1 S-------  HLT           11925
8000 0200 0000 4B31 4B31 4B31 4B31 4CC1 S-------  HLT           11929
8000 0200 0000 4B31 4B31 4B31 4B31 4CC1 S-------  HLT           11933
8000 0200 0000 4B31 4B31 4B31 4B31 4CC1 S-------  HLT           11937
8000 0200 0000 4B31 4B31 4B31 4B31 4CC1 S-------  HLT           11941
8000 0200 0000 4B31 4B31 4B31 4B31 4CC1 S-------  HLT           11945
8000 0200 0000 4B31 4B31 4B31 4B31 4CC1 S-------  HLT           11949
8000 0200 0000 4B31 4B31 4B31 4B31 4CC1 S-------  HLT           11953
8000 0200 0000 4B31 4B31 4B31 4B31 4CC1 S-------  HLT           11957
8000 0200 0000 4B31 4B31 4B31 4B31 4CC1 S-------  HLT           11961
8000 0200 0000 4B31 4B31 4B31 4B31 4CC1 S-------  HLT           11965
8000 0200 0000 4B31 4B31 4B31 4B31 4CC1 S-------  HLT           11969
8000 0200 0000 4B31 4B31 4B31 4B31 4CC1 S-------  HLT           11973
8000 0200 0000 4B31 4B31 4B31 4B31 4CC1 S-------  HLT           11977
8000 0200 0000 4B31 4B31 4B31 4B31 4CC1 S-------  HLT           11981
8000 0200 0000 4B31 4B31 4B31 4B31 4CC1 S-------  HLT           11985
8000 0200 0000 4B31 4B31 4B31 4B31 4CC1 S-------  HLT           11989
8000 0200 0000 4B31 4B31 4B31 4B31 4CC1 S-------  HLT           11993
8000 0200 0000 4B31 4B31 4B31 4B31 4CC1 S-------  HLT           11997
8000 0200 0000 4B31 4B31 4B31 4B31 4CC1 S-------  HLT           12001
8000 0200 0000 4B31 4B31 4B31 4B31 4CC1 S-------  HLT           12005
8000 0200 0000 4B31 4B31 4B31 4B31 4CC1 S-------  HLT           12009
8000 0200 0000 4B31 4B31 4B31 4B31 4CC1 S-------  HLT           12013
8000 0200 0000 4B31 4B31 4B31 4B31 4CC1 S-------  HLT           12017
8000 0200 0000 4B31 4B31 4B31 4B31 4CC1 S-------  HLT           12021
8000 0200 0000 4B31 4B31 4B31 4B31 4CC1 S-------  HLT           12025
8000 0200 0000 4B31 4B31 4B31 4B31 4CC1 S-------  HLT           12029
8000 0200 0000 4B31 4B31 4B31 4B31 4CC1 S-------  HLT           12033
8000 0200 0000 4B31 4B31 4B31 4B31 4CC1 S-------  HLT           12037
8000 0200 0000 4B31 4B31 4B31 4B31 4CC1 S-------  HLT           12041
8000 0200 0000 4B31 4B31 4B31 4B31 4CC1 S-------  HLT           12045
8000 0200 0000 4B31 4B31 4B31 4B31 4CC1 S-------  HLT           12049
8000 0200 0000 4B31 4B31 4B31 4B31 4CC1 S-------  HLT           12053
8000 0200 0000 4B31 4B31 4B31 4B31 4CC1 S-------  HLT           12057
8000 0200 0000 4B31 4B31 4B31 4B31 4CC1 S-------  HLT           12061
8000 0200 0000 4B31 4B31 4B31 4B31 4CC1 S-------  HLT           12065
8000 0200 0000 4B31 4B31 4B31 4B31 4CC1 S-------  HLT           12069
8000 0200 0000 4B31 4B31 4B31 4B31 4CC1 S-------  HLT           12073
8000 0200 0000 4B31 4B31 4B31 4B31 4CC1 S-------  HLT           12077
8000 0200 0000 4B31 4B31 4B31 4B31 4CC1 S-------  HLT           12081
8000 0200 0000 4B31 4B31 4B31 4B31 4CC1 S-------  HLT           12085
8000 0200 0000 4B31 4B31 4B31 4B31 4CC1 S-------  HLT           12089
8000 0200 0000 4B31 4B31 4B31 4B31 4CC1 S-------  HLT           12093
8000 0200 0000 4B31 4B31 4B31 4B31 4CC1 S-------  HLT           12097
8000 0200 0000 4B31 4B31 4B31 4B31 4CC1 S-------  HLT           12101
8000 0200 0000 4B31 4B31 4B31 4B31 4CC1 S-------  HLT           12105
8000 0200 0000 4B31 4B31 4B31 4B31 4CC1 S-------  HLT           12109
8000 0200 0000 4B31 4B31 4B31 4B31 4CC1 S-------  HLT           12113
8000 0200 0000 4B31 4B31 4B31 4B31 4CC1 S-------  HLT           12117
8000 0200 0000 4B31 4B31 4B31 4B31 4CC1 S-------  HLT           12121
8000 0200 0000 4B31 4B31 4B31 4B31 4CC1 S-------  HLT           12125
8000 0200 0000 4B31 4B31 4B31 4B31 4CC1 S-------  HLT           12129
8000 0200 0000 4B31 4B31 4B31 4B31 4CC1 S-------  HLT           12133
8000 0200 0000 4B31 4B31 4B31 4B31 4CC1 S-------  HLT           12137
8000 0200 0000 4B31 4B31 4B31 4B31 4CC1 S-------  HLT           12141
8000 0200 0000 4B31 4B31 4B31 4B31 4CC1 S-------  HLT           12145
8000 0200 0000 4B31 4B31 4B31 4B31 4CC1 S-------  HLT           12149
8000 0200 0000 4B31 4B31 4B31 4B31 4CC1 S-------  HLT           12153
8000 0200 0000 4B31 4B31 4B31 4B31 4CC1 S-------  HLT           12157
8000 0200 0000 4B31 4B31 4B31 4B31 4CC1 S-------  HLT           12161
8000 0200 0000 4B31 4B31 4B31 4B31 4CC1 S-------  HLT           12165
8000 0200 0000 4B31 4B31 4B31 4B31 4CC1 S-------  HLT           12169
8000 0200 0000 4B31 4B31 4B31 4B31 4CC1 S-------  HLT           12173
8000 0200 0000 4B31 4B31 4B31 4B31 4CC1 S-------  HLT           12177
8000 0200 0000 4B31 4B31 4B31 4B31 4CC1 S-------  HLT           12181
8000 0200 0000 4B31 4B31 4B31 4B31 4CC1 S-------  HLT           12185
8000 0200 0000 4B31 4B31 4B31 4B31 4CC1 S-------  HLT           12189
8000 0200 0000 4B31 4B31 4B31 4B31 4CC1 S-------  HLT           12193
8000 0200 0000 4B31 4B31 4B31 4B31 4CC1 S-------  HLT           12197
8000 0200 0000 4B31 4B31 4B31 4B31 4CC1 S-------  HLT           12201
8000 0200 0000 4B31 4B31 4B31 4B31 4CC1 S-------  HLT           12205
8000 0200 0000 4B31 4B31 4B31 4B31 4CC1 S-------  HLT           12209
8000 0200 0000 4B31 4B31 4B31 4B31 4CC1 S-------  HLT           12213
8000 0200 0000 4B31 4B31 4B31 4B31 4CC1 S-------  HLT           12217
8000 0200 0000 4B31 4B31 4B31 4B31 4CC1 S-------  HLT           12221
8000 0200 0000 4B31 4B31 4B31 4B31 4CC1 S-------  HLT           12225
8000 0200 0000 4B31 4B31 4B31 4B31 4CC1 S-------  HLT           12229
8000 0200 0000 4B31 4B31 4B31 4B31 4CC1 S-------  HLT           12233
8000 0200 0000 4B31 4B31 4B31 4B31 4CC1 S-------  HLT           12237
8000 0200 0000 4B31 4B31 4B31 4B31 4CC1 S-------  HLT           12241
8000 0200 0000 4B31 4B31 4B31 4B31 4CC1 S-------  HLT           12245
8000 0200 0000 4B31 4B31 4B31 4B31 4CC1 S-------  HLT           12249
8000 0200 0000 4B31 4B31 4B31 4B31 4CC1 S-------  HLT           12253
8000 0200 0000 4B31 4B31 4B31 4B31 4CC1 S-------  HLT           12257
8000 0200 0000 4B31 4B31 4B31 4B31 4CC1 S-------  HLT           12261
8000 0200 0000 4B31 4B31 4B31 4B31 4CC1 S-------  HLT           12265
8000 0200 0000 4B31 4B31 4B31 4B31 4CC1 S-------  HLT           12269
8000 0200 0000 4B31 4B31 4B31 4B31 4CC1 S-------  HLT           12273
8000 0200 0000 4B31 4B31 4B31 4B31 4CC1 S-------  HLT           12277
8000 0200 0000 4B31 4B31 4B31 4B31 4CC1 S-------  HLT           12281
8000 0200 0000 4B31 4B31 4B31 4B31 4CC1 S-------  HLT           12285
8000 0200 0000 4B31 4B31 4B31 4B31 4CC1 S-------  HLT           12289
8000 0200 0000 4B31 4B31 4B31 4B31 4CC1 S-------  HLT           12293
8000 0200 0000 4B31 4B31 4B31 4B31 4CC1 S-------  HLT           12297
8000 0200 0000 4B31 4B31 4B31 4B31 4CC1 S-------  HLT           12301
8000 0200 0000 4B31 4B31 4B31 4B31 4CC1 S-------  HLT           12305
8000 0200 0000 4B31 4B31 4B31 4B31 4CC1 S-------  HLT           12309
8000 0200 0000 4B31 4B31 4B31 4B31 4CC1 S-------  HLT           12313
8000 0200 0000 4B31 4B31 4B31 4B31 4CC1 S-------  HLT           12317
8000 0200 0000 4B31 4B31 4B31 4B31 4CC1 S-------  HLT           12321
8000 0200 0000 4B31 4B31 4B31 4B31 4CC1 S-------  HLT           12325
8000 0200 0000 4B31 4B31 4B31 4B31 4CC1 S-------  HLT           12329
8000 0200 0000 4B31 4B31 4B31 4B31 4CC1 S-------  HLT           12333
8000 0200 0000 4B31 4B31 4B31 4B31 4CC1 S-------  HLT           12337
8000 0200 0000 4B31 4B31 4B31 4B31 4CC1 S-------  HLT           12341
8000 0200 0000 4B31 4B31 4B31 4B31 4CC1 S-------  HLT           12345
8000 0200 0000 4B31 4B31 4B31 4B31 4CC1 S-------  HLT           12349
8000 0200 0000 4B31 4B31 4B31 4B31 4CC1 S-------  HLT           12353
8000 0200 0000 4B31 4B31 4B31 4B31 4CC1 S-------  HLT           12357
8000 0200 0000 4B31 4B31 4B31 4B31 4CC1 S-------  HLT           12361
8000 0200 0000 4B31 4B31 4B31 4B31 4CC1 S-------  HLT           12365
8000 0200 0000 4B31 4B31 4B31 4B31 4CC1 S-------  HLT           12369
8000 0200 0000 4B31 4B31 4B31 4B31 4CC1 S-------  HLT           12373
8000 0200 0000 4B31 4B31 4B31 4B31 4CC1 S-------  HLT           12377
8000 0200 0000 4B31 4B31 4B31 4B31 4CC1 S-------  HLT           12381
8000 0200 0000 4B31 4B31 4B31 4B31 4CC1 S-------  HLT           12385
8000 0200 0000 4B31 4B31 4B31 4B31 4CC1 S-------  HLT           12389
8000 0200 0000 4B31 4B31 4B31 4B31 4CC1 S-------  HLT           12393
8000 0200 0000 4B31 4B31 4B31 4B31 4CC1 S-------  HLT           12397
8000 0200 0000 4B31 4B31 4B31 4B31 4CC1 S-------  HLT           12401
8000 0200 0000 4B31 4B31 4B31 4B31 4CC1 S-------  HLT           12405
8000 0200 0000 4B31 4B31 4B31 4B31 4CC1 S-------  HLT           12409
8000 0200 0000 4B31 4B31 4B31 4B31 4CC1 S-------  HLT           12413
8000 0200 0000 4B31 4B31 4B31 4B31 4CC1 S-------  HLT           12417
8000 0200 0000 4B31 4B31 4B31 4B31 4CC1 S-------  HLT           12421
8000 0200 0000 4B31 4B31 4B31 4B31 4CC1 S-------  HLT           12425
8000 0200 0000 4B31 4B31 4B31 4B31 4CC1 S-------  HLT           12429
8000 0200 0000 4B31 4B31 4B31 4B31 4CC1 S-------  HLT           12433
8000 0200 0000 4B31 4B31 4B31 4B31 4CC1 S-------  HLT           12437
8000 0200 0000 4B31 4B31 4B31 4B31 4CC1 S-------  HLT           12441
8000 0200 0000 4B31 4B31 4B31 4B31 4CC1 S-------  HLT           12445
8000 0200 0000 4B31 4B31 4B31 4B31 4CC1 S-------  HLT           12449
8000 0200 0000 4B31 4B31 4B31 4B31 4CC1 S-------  HLT           12453
8000 0200 0000 4B31 4B31 4B31 4B31 4CC1 S-------  HLT           12457
8000 0200 0000 4B31 4B31 4B31 4B31 4CC1 S-------  HLT           12461
8000 0200 0000 4B31 4B31 4B31 4B31 4CC1 S-------  HLT           12465
8000 0200 0000 4B31 4B31 4B31 4B31 4CC1 S-------  HLT           12469
8000 0200 0000 4B31 4B31 4B31 4B31 4CC1 S-------  HLT           12473
8000 0200 0000 4B31 4B31 4B31 4B31 4CC1 S-------  HLT           12477
8000 0200 0000 4B31 4B31 4B31 4B31 4CC1 S-------  HLT           12481
8000 0200 0000 4B31 4B31 4B31 4B31 4CC1 S-------  HLT           12485
8000 0200 0000 4B31 4B31 4B31 4B31 4CC1 S-------  HLT           12489
8000 0200 0000 4B31 4B31 4B31 4B31 4CC1 S-------  HLT           12493
8000 0200 0000 4B31 4B31 4B31 4B31 4CC1 S-------  HLT           12497
8000 0200 0000 4B31 4B31 4B31 4B31 4CC1 S-------  HLT           12501
8000 0200 0000 4B31 4B31 4B31 4B31 4CC1 S-------  HLT           12505
8000 0200 0000 4B31 4B31 4B31 4B31 4CC1 S-------  HLT           12509
8000 0200 0000 4B31 4B31 4B31 4B31 4CC1 S-------  HLT           12513
8000 0200 0000 4B31 4B31 4B31 4B31 4CC1 S-------  HLT           12517
8000 0200 0000 4B31 4B31 4B31 4B31 4CC1 S-------  HLT           12521
8000 0200 0000 4B31 4B31 4B31 4B31 4CC1 S-------  HLT           12525
8000 0200 0000 4B31 4B31 4B31 4B31 4CC1 S-------  HLT           12529
8000 0200 0000 4B31 4B31 4B31 4B31 4CC1 S-------  HLT           12533
8000 0200 0000 4B31 4B31 4B31 4B31 4CC1 S-------  HLT           12537
8000 0200 0000 4B31 4B31 4B31 4B31 4CC1 S-------  HLT           12541
8000 0200 0000 4B31 4B31 4B31 4B31 4CC1 S-------  HLT           12545
8000 0200 0000 4B31 4B31 4B31 4B31 4CC1 S-------  HLT           12549
8000 0200 0000 4B31 4B31 4B31 4B31 4CC1 S-------  HLT           12553
8000 0200 0000 4B31 4B31 4B31 4B31 4CC1 S-------  HLT           12557
8000 0200 0000 4B31 4B31 4B31 4B31 4CC1 S-------  HLT           12561
8000 0200 0000 4B31 4B31 4B31 4B31 4CC1 S-------  HLT           12565
8000 0200 0000 4B31 4B31 4B31 4B31 4CC1 S-------  HLT           12569
8000 0200 0000 4B31 4B31 4B31 4B31 4CC1 S-------  HLT           12573
8000 0200 0000 4B31 4B31 4B31 4B31 4CC1 S-------  HLT           12577
8000 0200 0000 4B31 4B31 4B31 4B31 4CC1 S-------  HLT           12581
8000 0200 0000 4B31 4B31 4B31 4B31 4CC1 S-------  HLT           12585
8000 0200 0000 4B31 4B31 4B31 4B31 4CC1 S-------  HLT           12589
8000 0200 0000 4B31 4B31 4B31 4B31 4CC1 S-------  HLT           12593
8000 0200 0000 4B31 4B31 4B31 4B31 4CC1 S-------  HLT           12597
8000 0200 0000 4B31 4B31 4B31 4B31 4CC1 S-------  HLT           12601
8000 0200 0000 4B31 4B31 4B31 4B31 4CC1 S-------  HLT           12605
8000 0200 0000 4B31 4B31 4B31 4B31 4CC1 S-------  HLT           12609
8000 0200 0000 4B31 4B31 4B31 4B31 4CC1 S-------  HLT           12613
8000 0200 0000 4B31 4B31 4B31 4B31 4CC1 S-------  HLT           12617
8000 0200 0000 4B31 4B31 4B31 4B31 4CC1 S-------  HLT           12621
8000 0200 0000 4B31 4B31 4B31 4B31 4CC1 S-------  HLT           12625
8000 0200 0000 4B31 4B31 4B31 4B31 4CC1 S-------  HLT           12629
8000 0200 0000 4B31 4B31 4B31 4B31 4CC1 S-------  HLT           12633
8000 0200 0000 4B31 4B31 4B31 4B31 4CC1 S-------  HLT           12637
8000 0200 0000 4B31 4B31 4B31 4B31 4CC1 S-------  HLT           12641
8000 0200 0000 4B31 4B31 4B31 4B31 4CC1 S-------  HLT           12645
8000 0200 0000 4B31 4B31 4B31 4B31 4CC1 S-------  HLT           12649
8000 0200 0000 4B31 4B31 4B31 4B31 4CC1 S-------  HLT           12653
8000 0200 0000 4B31 4B31 4B31 4B31 4CC1 S-------  HLT           12657
8000 0200 0000 4B31 4B31 4B31 4B31 4CC1 S-------  HLT           12661
8000 0200 0000 4B31 4B31 4B31 4B31 4CC1 S-------  HLT           12665
8000 0200 0000 4B31 4B31 4B31 4B31 4CC1 S-------  HLT           12669
8000 0200 0000 4B31 4B31 4B31 4B31 4CC1 S-------  HLT           12673
8000 0200 0000 4B31 4B31 4B31 4B31 4CC1 S-------  HLT           12677
8000 0200 0000 4B31 4B31 4B31 4B31 4CC1 S-------  HLT           12681
8000 0200 0000 4B31 4B31 4B31 4B31 4CC1 S-------  HLT           12685
8000 0200 0000 4B31 4B31 4B31 4B31 4CC1 S-------  HLT           12689
8000 0200 0000 4B31 4B31 4B31 4B31 4CC1 S-------  HLT           12693
8000 0200 0000 4B31 4B31 4B31 4B31 4CC1 S-------  HLT           12697
8000 0200 0000 4B31 4B31 4B31 4B31 4CC1 S-------  HLT           12701
8000 0200 0000 4B31 4B31 4B31 4B31 4CC1 S-------  HLT           12705
8000 0200 0000 4B31 4B31 4B31 4B31 4CC1 S-------  HLT           12709
8000 0200 0000 4B31 4B31 4B31 4B31 4CC1 S-------  HLT           12713
8000 0200 0000 4B31 4B31 4B31 4B31 4CC1 S-------  HLT           12717
8000 0200 0000 4B31 4B31 4B31 4B31 4CC1 S-------  HLT           12721
8000 0200 0000 4B31 4B31 4B31 4B31 4CC1 S-------  HLT           12725
8000 0200 0000 4B31 4B31 4B31 4B31 4CC1 S-------  HLT           12729
8000 0200 0000 4B31 4B31 4B31 4B31 4CC1 S-------  HLT           12733
8000 0200 0000 4B31 4B31 4B31 4B31 4CC1 S-------  HLT           12737
8000 0200 0000 4B31 4B31 4B31 4B31 4CC1 S-------  HLT           12741
8000 0200 0000 4B31 4B31 4B31 4B31 4CC1 S-------  HLT           12745
8000 0200 0000 4B31 4B31 4B31 4B31 4CC1 S-------  HLT           12749
8000 0200 0000 4B31 4B31 4B31 4B31 4CC1 S-------  HLT           12753
8000 0200 0000 4B31 4B31 4B31 4B31 4CC1 S-------  HLT           12757
8000 0200 0000 4B31 4B31 4B31 4B31 4CC1 S-------  HLT           12761
8000 0200 0000 4B31 4B31 4B31 4B31 4CC1 S-------  HLT           12765
8000 0200 0000 4B31 4B31 4B31 4B31 4CC1 S-------  HLT           12769
8000 0200 0000 4B31 4B31 4B31 4B31 4CC1 S-------  HLT           12773
8000 0200 0000 4B31 4B31 4B31 4B31 4CC1 S-------  HLT           12777
8000 0200 0000 4B31 4B31 4B31 4B31 4CC1 S-------  HLT           12781
8000 0200 0000 4B31 4B31 4B31 4B31 4CC1 S-------  HLT           12785
8000 0200 0000 4B31 4B31 4B31 4B31 4CC1 S-------  HLT           12789
8000 0200 0000 4B31 4B31 4B31 4B31 4CC1 S-------  HLT           12793
8000 0200 0000 4B31 4B31 4B31 4B31 4CC1 S-------  HLT           12797
8000 0200 0000 4B31 4B31 4B31 4B31 4CC1 S-------  HLT           12801
8000 0200 0000 4B31 4B31 4B31 4B31 4CC1 S-------  HLT           12805
8000 0200 0000 4B31 4B31 4B31 4B31 4CC1 S-------  HLT           12809
8000 0200 0000 4B31 4B31 4B31 4B31 4CC1 S-------  HLT           12813
8000 0200 0000 4B31 4B31 4B31 4B31 4CC1 S-------  HLT           12817
8000 0200 0000 4B31 4B31 4B31 4B31 4CC1 S-------  HLT           12821
8000 0200 0000 4B31 4B31 4B31 4B31 4CC1 S-------  HLT           12825
8000 0200 0000 4B31 4B31 4B31 4B31 4CC1 S-------  HLT           12829
8000 0200 0000 4B31 4B31 4B31 4B31 4CC1 S-------  HLT           12833
8000 0200 0000 4B31 4B31 4B31 4B31 4CC1 S-------  HLT           12837
8000 0200 0000 4B31 4B31 4B31 4B31 4CC1 S-------  HLT           12841
8000 0200 0000 4B31 4B31 4B31 4B31 4CC1 S-------  HLT           12845
8000 0200 0000 4B31 4B31 4B31 4B31 4CC1 S-------  HLT           12849
8000 0200 0000 4B31 4B31 4B31 4B31 4CC1 S-------  HLT           12853
8000 0200 0000 4B31 4B31 4B31 4B31 4CC1 S-------  HLT           12857
8000 0200 0000 4B31 4B31 4B31 4B31 4CC1 S-------  HLT           12861
8000 0200 0000 4B31 4B31 4B31 4B31 4CC1 S-------  HLT           12865
8000 0200 0000 4B31 4B31 4B31 4B31 4CC1 S-------  HLT           12869
8000 0200 0000 4B31 4B31 4B31 4B31 4CC1 S-------  HLT           12873
8000 0200 0000 4B31 4B31 4B31 4B31 4CC1 S-------  HLT           12877
8000 0200 0000 4B31 4B31 4B31 4B31 4CC1 S-------  HLT           12881
8000 0200 0000 4B31 4B31 4B31 4B31 4CC1 S-------  HLT           12885
8000 0200 0000 4B31 4B31 4B31 4B31 4CC1 S-------  HLT           12889
8000 0200 0000 4B31 4B31 4B31 4B31 4CC1 S-------  HLT           12893
8000 0200 0000 4B31 4B31 4B31 4B31 4CC1 S-------  HLT           12897
8000 0200 0000 4B31 4B31 4B31 4B31 4CC1 S-------  HLT           12901
8000 0200 0000 4B31 4B31 4B31 4B31 4CC1 S-------  HLT           12905
8000 0200 0000 4B31 4B31 4B31 4B31 4CC1 S-------  HLT           12909
8000 0200 0000 4B31 4B31 4B31 4B31 4CC1 S-------  HLT           12913
8000 0200 0000 4B31 4B31 4B31 4B31 4CC1 S-------  HLT           12917
8000 0200 0000 4B31 4B31 4B31 4B31 4CC1 S-------  HLT           12921
8000 0200 0000 4B31 4B31 4B31 4B31 4CC1 S-------  HLT           12925
8000 0200 0000 4B31 4B31 4B31 4B31 4CC1 S-------  HLT           12929
8000 0200 0000 4B31 4B31 4B31 4B31 4CC1 S-------  HLT           12933
8000 0200 0000 4B31 4B31 4B31 4B31 4CC1 S-------  HLT           12937
8000 0200 0000 4B31 4B31 4B31 4B31 4CC1 S-------  HLT           12941
8000 0200 0000 4B31 4B31 4B31 4B31 4CC1 S-------  HLT           12945
8000 0200 0000 4B31 4B31 4B31 4B31 4CC1 S-------  HLT           12949
8000 0200 0000 4B31 4B31 4B31 4B31 4CC1 S-------  HLT           12953
8000 0200 0000 4B31 4B31 4B31 4B31 4CC1 S-------  HLT           12957
8000 0200 0000 4B31 4B31 4B31 4B31 4CC1 S-------  HLT           12961
8000 0200 0000 4B31 4B31 4B31 4B31 4CC1 S-------  HLT           12965
8000 0200 0000 4B31 4B31 4B31 4B31 4CC1 S-------  HLT           12969
8000 0200 0000 4B31 4B31 4B31 4B31 4CC1 S-------  HLT           12973
8000 0200 0000 4B31 4B31 4B31 4B31 4CC1 S-------  HLT           12977
8000 0200 0000 4B31 4B31 4B31 4B31 4CC1 S-------  HLT           12981
8000 0200 0000 4B31 4B31 4B31 4B31 4CC1 S-------  HLT           12985
8000 0200 0000 4B31 4B31 4B31 4B31 4CC1 S-------  HLT           12989
8000 0200 0000 4B31 4B31 4B31 4B31 4CC1 S-------  HLT           12993
8000 0200 0000 4B31 4B31 4B31 4B31 4CC1 S-------  HLT           12997
8000 0200 0000 4B31 4B31 4B31 4B31 4CC1 S-------  HLT           13001
8000 0200 0000 4B31 4B31 4B31 4B31 4CC1 S-------  HLT           13005
8000 0200 0000 4B31 4B31 4B31 4B31 4CC1 S-------  HLT           13009
8000 0200 0000 4B31 4B31 4B31 4B31 4CC1 S-------  HLT           13013
8000 0200 0000 4B31 4B31 4B31 4B31 4CC1 S-------  HLT           13017
8000 0200 0000 4B31 4B31 4B31 4B31 4CC1 S-------  HLT           13021
8000 0200 0000 4B31 4B31 4B31 4B31 4CC1 S-------  HLT           13025
8000 0200 0000 4B31 4B31 4B31 4B31 4CC1 S-------  HLT           13029
8000 0200 0000 4B31 4B31 4B31 4B31 4CC1 S-------  HLT           13033
8000 0200 0000 4B31 4B31 4B31 4B31 4CC1 S-------  HLT           13037
8000 0200 0000 4B31 4B31 4B31 4B31 4CC1 S-------  HLT           13041
8000 0200 0000 4B31 4B31 4B31 4B31 4CC1 S-------  HLT           13045
8000 0200 0000 4B31 4B31 4B31 4B31 4CC1 S-------  HLT           13049
8000 0200 0000 4B31 4B31 4B31 4B31 4CC1 S-------  HLT           13053
8000 0200 0000 4B31 4B31 4B31 4B31 4CC1 S-------  HLT           13057
8000 0200 0000 4B31 4B31 4B31 4B31 4CC1 S-------  HLT           13061
8000 0200 0000 4B31 4B31 4B31 4B31 4CC1 S-------  HLT           13065
8000 0200 0000 4B31 4B31 4B31 4B31 4CC1 S-------  HLT           13069
8000 0200 0000 4B31 4B31 4B31 4B31 4CC1 S-------  HLT           13073
8000 0200 0000 4B31 4B31 4B31 4B31 4CC1 S-------  HLT           13077
8000 0200 0000 4B31 4B31 4B31 4B31 4CC1 S-------  HLT           13081
8000 0200 0000 4B31 4B31 4B31 4B31 4CC1 S-------  HLT           13085
8000 0200 0000 4B31 4B31 4B31 4B31 4CC1 S-------  HLT           13089
8000 0200 0000 4B31 4B31 4B31 4B31 4CC1 S-------  HLT           13093
8000 0200 0000 4B31 4B31 4B31 4B31 4CC1 S-------  HLT           13097
8000 0200 0000 4B31 4B31 4B31 4B31 4CC1 S-------  HLT           13101
8000 0200 0000 4B31 4B31 4B31 4B31 4CC1 S-------  HLT           13105
8000 0200 0000 4B31 4B31 4B31 4B31 4CC1 S-------  HLT           13109
8000 0200 0000 4B31 4B31 4B31 4B31 4CC1 S-------  HLT           13113
8000 0200 0000 4B31 4B31 4B31 4B31 4CC1 S-------  HLT           13117
8000 0200 0000 4B31 4B31 4B31 4B31 4CC1 S-------  HLT           13121
8000 0200 0000 4B31 4B31 4B31 4B31 4CC1 S-------  HLT           13125
8000 0200 0000 4B31 4B31 4B31 4B31 4CC1 S-------  HLT           13129
8000 0200 0000 4B31 4B31 4B31 4B31 4CC1 S-------  HLT           13133
8000 0200 0000 4B31 4B31 4B31 4B31 4CC1 S-------  HLT           13137
8000 0200 0000 4B31 4B31 4B31 4B31 4CC1 S-------  HLT           13141
8000 0200 0000 4B31 4B31 4B31 4B31 4CC1 S-------  HLT           13145
8000 0200 0000 4B31 4B31 4B31 4B31 4CC1 S-------  HLT           13149
8000 0200 0000 4B31 4B31 4B31 4B31 4CC1 S-------  HLT           13153
8000 0200 0000 4B31 4B31 4B31 4B31 4CC1 S-------  HLT           13157
8000 0200 0000 4B31 4B31 4B31 4B31 4CC1 S-------  HLT           13161
8000 0200 0000 4B31 4B31 4B31 4B31 4CC1 S-------  HLT           13165
8000 0200 0000 4B31 4B31 4B31 4B31 4CC1 S-------  HLT           13169
8000 0200 0000 4B31 4B31 4B31 4B31 4CC1 S-------  HLT           13173
8000 0200 0000 4B31 4B31 4B31 4B31 4CC1 S-------  HLT           13177
8000 0200 0000 4B31 4B31 4B31 4B31 4CC1 S-------  HLT           13181
8000 0200 0000 4B31 4B31 4B31 4B31 4CC1 S-------  HLT           13185
8000 0200 0000 4B31 4B31 4B31 4B31 4CC1 S-------  HLT           13189
8000 0200 0000 4B31 4B31 4B31 4B31 4CC1 S-------  HLT           13193
8000 0200 0000 4B31 4B31 4B31 4B31 4CC1 S-------  HLT           13197
8000 0200 0000 4B31 4B31 4B31 4B31 4CC1 S-------  HLT           13201
8000 0200 0000 4B31 4B31 4B31 4B31 4CC1 S-------  HLT           13205
8000 0200 0000 4B31 4B31 4B31 4B31 4CC1 S-------  HLT           13209
8000 0200 0000 4B31 4B31 4B31 4B31 4CC1 S-------  HLT           13213
8000 0200 0000 4B31 4B31 4B31 4B31 4CC1 S-------  HLT           13217
8000 0200 0000 4B31 4B31 4B31 4B31 4CC1 S-------  HLT           13221
8000 0200 0000 4B31 4B31 4B31 4B31 4CC1 S-------  HLT           13225
8000 0200 0000 4B31 4B31 4B31 4B31 4CC1 S-------  HLT           13229
8000 0200 0000 4B31 4B31 4B31 4B31 4CC1 S-------  HLT           13233
8000 0200 0000 4B31 4B31 4B31 4B31 4CC1 S-------  HLT           13237
8000 0200 0000 4B31 4B31 4B31 4B31 4CC1 S-------  HLT           13241
8000 0200 0000 4B31 4B31 4B31 4B31 4CC1 S-------  HLT           13245
8000 0200 0000 4B31 4B31 4B31 4B31 4CC1 S-------  HLT           13249
8000 0200 0000 4B31 4B31 4B31 4B31 4CC1 S-------  HLT           13253
8000 0200 0000 4B31 4B31 4B31 4B31 4CC1 S-------  HLT           13257
8000 0200 0000 4B31 4B31 4B31 4B31 4CC1 S-------  HLT           13261
8000 0200 0000 4B31 4B31 4B31 4B31 4CC1 S-------  HLT           13265
8000 0200 0000 4B31 4B31 4B31 4B31 4CC1 S-------  HLT           13269
8000 0200 0000 4B31 4B31 4B31 4B31 4CC1 S-------  HLT           13273
8000 0200 0000 4B31 4B31 4B31 4B31 4CC1 S-------  HLT           13277
8000 0200 0000 4B31 4B31 4B31 4B31 4CC1 S-------  HLT           13281
8000 0200 0000 4B31 4B31 4B31 4B31 4CC1 S-------  HLT           13285
8000 0200 0000 4B31 4B31 4B31 4B31 4CC1 S-------  HLT           13289
8000 0200 0000 4B31 4B31 4B31 4B31 4CC1 S-------  HLT           13293
8000 0200 0000 4B31 4B31 4B31 4B31 4CC1 S-------  HLT           13297
8000 0200 0000 4B31 4B31 4B31 4B31 4CC1 S-------  HLT           13301
8000 0200 0000 4B31 4B31 4B31 4B31 4CC1 S-------  HLT           13305
8000 0200 0000 4B31 4B31 4B31 4B31 4CC1 S-------  HLT           13309
8000 0200 0000 4B31 4B31 4B31 4B31 4CC1 S-------  HLT           13313
8000 0200 0000 4B31 4B31 4B31 4B31 4CC1 S-------  HLT           13317
8000 0200 0000 4B31 4B31 4B31 4B31 4CC1 S-------  HLT           13321
8000 0200 0000 4B31 4B31 4B31 4B31 4CC1 S-------  HLT           13325
8000 0200 0000 4B31 4B31 4B31 4B31 4CC1 S-------  HLT           13329
8000 0200 0000 4B31 4B31 4B31 4B31 4CC1 S-------  HLT           13333
8000 0200 0000 4B31 4B31 4B31 4B31 4CC1 S-------  HLT           13337
8000 0200 0000 4B31 4B31 4B31 4B31 4CC1 S-------  HLT           13341
8000 0200 0000 4B31 4B31 4B31 4B31 4CC1 S-------  HLT           13345
8000 0200 0000 4B31 4B31 4B31 4B31 4CC1 S-------  HLT           13349
8000 0200 0000 4B31 4B31 4B31 4B31 4CC1 S-------  HLT           13353
8000 0200 0000 4B31 4B31 4B31 4B31 4CC1 S-------  HLT           13357
8000 0200 0000 4B31 4B31 4B31 4B31 4CC1 S-------  HLT           13361
8000 0200 0000 4B31 4B31 4B31 4B31 4CC1 S-------  HLT           13365
8000 0200 0000 4B31 4B31 4B31 4B31 4CC1 S-------  HLT           13369
8000 0200 0000 4B31 4B31 4B31 4B31 4CC1 S-------  HLT           13373
8000 0200 0000 4B31 4B31 4B31 4B31 4CC1 S-------  HLT           13377
8000 0200 0000 4B31 4B31 4B31 4B31 4CC1 S-------  HLT           13381
8000 0200 0000 4B31 4B31 4B31 4B31 4CC1 S-------  HLT           13385
8000 0200 0000 4B31 4B31 4B31 4B31 4CC1 S-------  HLT           13389
8000 0200 0000 4B31 4B31 4B31 4B31 4CC1 S-------  HLT           13393
8000 0200 0000 4B31 4B31 4B31 4B31 4CC1 S-------  HLT           13397
8000 0200 0000 4B31 4B31 4B31 4B31 4CC1 S-------  HLT           13401
8000 0200 0000 4B31 4B31 4B31 4B31 4CC1 S-------  HLT           13405
8000 0200 0000 4B31 4B31 4B31 4B31 4CC1 S-------  HLT           13409
8000 0200 0000 4B31 4B31 4B31 4B31 4CC1 S-------  HLT           13413
8000 0200 0000 4B31 4B31 4B31 4B31 4CC1 S-------  HLT           13417
8000 0200 0000 4B31 4B31 4B31 4B31 4CC1 S-------  HLT           13421
8000 0200 0000 4B31 4B31 4B31 4B31 4CC1 S-------  HLT           13425
8000 0200 0000 4B31 4B31 4B31 4B31 4CC1 S-------  HLT           13429
8000 0200 0000 4B31 4B31 4B31 4B31 4CC1 S-------  HLT           13433
8000 0200 0000 4B31 4B31 4B31 4B31 4CC1 S-------  HLT           13437
8000 0200 0000 4B31 4B31 4B31 4B31 4CC1 S-------  HLT           13441
8000 0200 0000 4B31 4B31 4B31 4B31 4CC1 S-------  HLT           13445
8000 0200 0000 4B31 4B31 4B31 4B31 4CC1 S-------  HLT           13449
8000 0200 0000 4B31 4B31 4B31 4B31 4CC1 S-------  HLT           13453
8000 0200 0000 4B31 4B31 4B31 4B31 4CC1 S-------  HLT           13457
8000 0200 0000 4B31 4B31 4B31 4B31 4CC1 S-------  HLT           13461
8000 0200 0000 4B31 4B31 4B31 4B31 4CC1 S-------  HLT           13465
8000 0200 0000 4B31 4B31 4B31 4B31 4CC1 S-------  HLT           13469
8000 0200 0000 4B31 4B31 4B31 4B31 4CC1 S-------  HLT           13473
8000 0200 0000 4B31 4B31 4B31 4B31 4CC1 S-------  HLT           13477
8000 0200 0000 4B31 4B31 4B31 4B31 4CC1 S-------  HLT           13481
8000 0200 0000 4B31 4B31 4B31 4B31 4CC1 S-------  HLT           13485
8000 0200 0000 4B31 4B31 4B31 4B31 4CC1 S-------  HLT           13489
8000 0200 0000 4B31 4B31 4B31 4B31 4CC1 S-------  HLT           13493
8000 0200 0000 4B31 4B31 4B31 4B31 4CC1 S-------  HLT           13497
8000 0200 0000 4B31 4B31 4B31 4B31 4CC1 S-------  HLT           13501
8000 0200 0000 4B31 4B31 4B31 4B31 4CC1 S-------  HLT           13505
8000 0200 0000 4B31 4B31 4B31 4B31 4CC1 S-------  HLT           13509
8000 0200 0000 4B31 4B31 4B31 4B31 4CC1 S-------  HLT           13513
8000 0200 0000 4B31 4B31 4B31 4B31 4CC1 S-------  HLT           13517
8000 0200 0000 4B31 4B31 4B31 4B31 4CC1 S-------  HLT           13521
8000 0200 0000 4B31 4B31 4B31 4B31 4CC1 S-------  HLT           13525
8000 0200 0000 4B31 4B31 4B31 4B31 4CC1 S-------  HLT           13529
8000 0200 0000 4B31 4B31 4B31 4B31 4CC1 S-------  HLT           13533
8000 0200 0000 4B31 4B31 4B31 4B31 4CC1 S-------  HLT           13537
8000 0200 0000 4B31 4B31 4B31 4B31 4CC1 S-------  HLT           13541
8000 0200 0000 4B31 4B31 4B31 4B31 4CC1 S-------  HLT           13545
8000 0200 0000 4B31 4B31 4B31 4B31 4CC1 S-------  HLT           13549
8000 0200 0000 4B31 4B31 4B31 4B31 4CC1 S-------  HLT           13553
8000 0200 0000 4B31 4B31 4B31 4B31 4CC1 S-------  HLT           13557
8000 0200 0000 4B31 4B31 4B31 4B31 4CC1 S-------  HLT           13561
8000 0200 0000 4B31 4B31 4B31 4B31 4CC1 S-------  HLT           13565
8000 0200 0000 4B31 4B31 4B31 4B31 4CC1 S-------  HLT           13569
8000 0200 0000 4B31 4B31 4B31 4B31 4CC1 S-------  HLT           13573
8000 0200 0000 4B31 4B31 4B31 4B31 4CC1 S-------  HLT           13577
8000 0200 0000 4B31 4B31 4B31 4B31 4CC1 S-------  HLT           13581
8000 0200 0000 4B31 4B31 4B31 4B31 4CC1 S-------  HLT           13585
8000 0200 0000 4B31 4B31 4B31 4B31 4CC1 S-------  HLT           13589
8000 0200 0000 4B31 4B31 4B31 4B31 4CC1 S-------  HLT           13593
8000 0200 0000 4B31 4B31 4B31 4B31 4CC1 S-------  HLT           13597
8000 0200 0000 4B31 4B31 4B31 4B31 4CC1 S-------  HLT           13601
8000 0200 0000 4B31 4B31 4B31 4B31 4CC1 S-------  HLT           13605
8000 0200 0000 4B31 4B31 4B31 4B31 4CC1 S-------  HLT           13609
8000 0200 0000 4B31 4B31 4B31 4B31 4CC1 S-------  HLT           13613
8000 0200 0000 4B31 4B31 4B31 4B31 4CC1 S-------  HLT           13617
8000 0200 0000 4B31 4B31 4B31 4B31 4CC1 S-------  HLT           13621
8000 0200 0000 4B31 4B31 4B31 4B31 4CC1 S-------  HLT           13625
8000 0200 0000 4B31 4B31 4B31 4B31 4CC1 S-------  HLT           13629
8000 0200 0000 4B31 4B31 4B31 4B31 4CC1 S-------  HLT           13633
8000 0200 0000 4B31 4B31 4B31 4B31 4CC1 S-------  HLT           13637
8000 0200 0000 4B31 4B31 4B31 4B31 4CC1 S-------  HLT           13641
8000 0200 0000 4B31 4B31 4B31 4B31 4CC1 S-------  HLT           13645
8000 0200 0000 4B31 4B31 4B31 4B31 4CC1 S-------  HLT           13649
8000 0200 0000 4B31 4B31 4B31 4B31 4CC1 S-------  HLT           13653
8000 0200 0000 4B31 4B31 4B31 4B31 4CC1 S-------  HLT           13657
8000 0200 0000 4B31 4B31 4B31 4B31 4CC1 S-------  HLT           13661
8000 0200 0000 4B31 4B31 4B31 4B31 4CC1 S-------  HLT           13665
8000 0200 0000 4B31 4B31 4B31 4B31 4CC1 S-------  HLT           13669
8000 0200 0000 4B31 4B31 4B31 4B31 4CC1 S-------  HLT           13673
8000 0200 0000 4B31 4B31 4B31 4B31 4CC1 S-------  HLT           13677
8000 0200 0000 4B31 4B31 4B31 4B31 4CC1 S-------  HLT           13681
8000 0200 0000 4B31 4B31 4B31 4B31 4CC1 S-------  HLT           13685
8000 0200 0000 4B31 4B31 4B31 4B31 4CC1 S-------  HLT           13689
8000 0200 0000 4B31 4B31 4B31 4B31 4CC1 S-------  HLT           13693
8000 0200 0000 4B31 4B31 4B31 4B31 4CC1 S-------  HLT           13697
8000 0200 0000 4B31 4B31 4B31 4B31 4CC1 S-------  HLT           13701
8000 0200 0000 4B31 4B31 4B31 4B31 4CC1 S-------  HLT           13705
8000 0200 0000 4B31 4B31 4B31 4B31 4CC1 S-------  HLT           13709
8000 0200 0000 4B31 4B31 4B31 4B31 4CC1 S-------  HLT           13713
8000 0200 0000 4B31 4B31 4B31 4B31 4CC1 S-------  HLT           13717
8000 0200 0000 4B31 4B31 4B31 4B31 4CC1 S-------  HLT           13721
8000 0200 0000 4B31 4B31 4B31 4B31 4CC1 S-------  HLT           13725
8000 0200 0000 4B31 4B31 4B31 4B31 4CC1 S-------  HLT           13729
8000 0200 0000 4B31 4B31 4B31 4B31 4CC1 S-------  HLT           13733
8000 0200 0000 4B31 4B31 4B31 4B31 4CC1 S-------  HLT           13737
8000 0200 0000 4B31 4B31 4B31 4B31 4CC1 S-------  HLT           13741
8000 0200 0000 4B31 4B31 4B31 4B31 4CC1 S-------  HLT           13745
8000 0200 0000 4B31 4B31 4B31 4B31 4CC1 S-------  HLT           13749
8000 0200 0000 4B31 4B31 4B31 4B31 4CC1 S-------  HLT           13753
8000 0200 0000 4B31 4B31 4B31 4B31 4CC1 S-------  HLT           13757
8000 0200 0000 4B31 4B31 4B31 4B31 4CC1 S-------  HLT           13761
8000 0200 0000 4B31 4B31 4B31 4B31 4CC1 S-------  HLT           13765
8000 0200 0000 4B31 4B31 4B31 4B31 4CC1 S-------  HLT           13769
8000 0200 0000 4B31 4B31 4B31 4B31 4CC1 S-------  HLT           13773
8000 0200 0000 4B31 4B31 4B31 4B31 4CC1 S-------  HLT           13777
8000 0200 0000 4B31 4B31 4B31 4B31 4CC1 S-------  HLT           13781
8000 0200 0000 4B31 4B31 4B31 4B31 4CC1 S-------  HLT           13785
8000 0200 0000 4B31 4B31 4B31 4B31 4CC1 S-------  HLT           13789
8000 0200 0000 4B31 4B31 4B31 4B31 4CC1 S-------  HLT           13793
8000 0200 0000 4B31 4B31 4B31 4B31 4CC1 S-------  HLT           13797
8000 0200 0000 4B31 4B31 4B31 4B31 4CC1 S-------  HLT           13801
8000 0200 0000 4B31 4B31 4B31 4B31 4CC1 S-------  HLT           13805
8000 0200 0000 4B31 4B31 4B31 4B31 4CC1 S-------  HLT           13809
8000 0200 0000 4B31 4B31 4B31 4B31 4CC1 S-------  HLT           13813
8000 0200 0000 4B31 4B31 4B31 4B31 4CC1 S-------  HLT           13817
8000 0200 0000 4B31 4B31 4B31 4B31 4CC1 S-------  HLT           13821
8000 0200 0000 4B31 4B31 4B31 4B31 4CC1 S-------  HLT           13825
8000 0200 0000 4B31 4B31 4B31 4B31 4CC1 S-------  HLT           13829
8000 0200 0000 4B31 4B31 4B31 4B31 4CC1 S-------  HLT           13833
8000 0200 0000 4B31 4B31 4B31 4B31 4CC1 S-------  HLT           13837
8000 0200 0000 4B31 4B31 4B31 4B31 4CC1 S-------  HLT           13841
8000 0200 0000 4B31 4B31 4B31 4B31 4CC1 S-------  HLT           13845
8000 0200 0000 4B31 4B31 4B31 4B31 4CC1 S-------  HLT           13849
8000 0200 0000 4B31 4B31 4B31 4B31 4CC1 S-------  HLT           13853
8000 0200 0000 4B31 4B31 4B31 4B31 4CC1 S-------  HLT           13857
8000 0200 0000 4B31 4B31 4B31 4B31 4CC1 S-------  HLT           13861
8000 0200 0000 4B31 4B31 4B31 4B31 4CC1 S-------  HLT           13865
8000 0200 0000 4B31 4B31 4B31 4B31 4CC1 S-------  HLT           13869
8000 0200 0000 4B31 4B31 4B31 4B31 4CC1 S-------  HLT           13873
8000 0200 0000 4B31 4B31 4B31 4B31 4CC1 S-------  HLT           13877
8000 0200 0000 4B31 4B31 4B31 4B31 4CC1 S-------  HLT           13881
8000 0200 0000 4B31 4B31 4B31 4B31 4CC1 S-------  HLT           13885
8000 0200 0000 4B31 4B31 4B31 4B31 4CC1 S-------  HLT           13889
8000 0200 0000 4B31 4B31 4B31 4B31 4CC1 S-------  HLT           13893
8000 0200 0000 4B31 4B31 4B31 4B31 4CC1 S-------  HLT           13897
8000 0200 0000 4B31 4B31 4B31 4B31 4CC1 S-------  HLT           13901
8000 0200 0000 4B31 4B31 4B31 4B31 4CC1 S-------  HLT           13905
8000 0200 0000 4B31 4B31 4B31 4B31 4CC1 S-------  HLT           13909
8000 0200 0000 4B31 4B31 4B31 4B31 4CC1 S-------  HLT           13913
8000 0200 0000 4B31 4B31 4B31 4B31 4CC1 S-------  HLT           13917
8000 0200 0000 4B31 4B31 4B31 4B31 4CC1 S-------  HLT           13921
8000 0200 0000 4B31 4B31 4B31 4B31 4CC1 S-------  HLT           13925
8000 0200 0000 4B31 4B31 4B31 4B31 4CC1 S-------  HLT           13929
8000 0200 0000 4B31 4B31 4B31 4B31 4CC1 S-------  HLT           13933
8000 0200 0000 4B31 4B31 4B31 4B31 4CC1 S-------  HLT           13937
8000 0200 0000 4B31 4B31 4B31 4B31 4CC1 S-------  HLT           13941
8000 0200 0000 4B31 4B31 4B31 4B31 4CC1 S-------  HLT           13945
8000 0200 0000 4B31 4B31 4B31 4B31 4CC1 S-------  HLT           13949
8000 0200 0000 4B31 4B31 4B31 4B31 4CC1 S-------  HLT           13953
8000 0200 0000 4B31 4B31 4B31 4B31 4CC1 S-------  HLT           13957
8000 0200 0000 4B31 4B31 4B31 4B31 4CC1 S-------  HLT           13961
8000 0200 0000 4B31 4B31 4B31 4B31 4CC1 S-------  HLT           13965
8000 0200 0000 4B31 4B31 4B31 4B31 4CC1 S-------  HLT           13969
8000 0200 0000 4B31 4B31 4B31 4B31 4CC1 S-------  HLT           13973
8000 0200 0000 4B31 4B31 4B31 4B31 4CC1 S-------  HLT           13977
8000 0200 0000 4B31 4B31 4B31 4B31 4CC1 S-------  HLT           13981
8000 0200 0000 4B31 4B31 4B31 4B31 4CC1 S-------  HLT           13985
8000 0200 0000 4B31 4B31 4B31 4B31 4CC1 S-------  HLT           13989
8000 0200 0000 4B31 4B31 4B31 4B31 4CC1 S-------  HLT           13993
8000 0200 0000 4B31 4B31 4B31 4B31 4CC1 S-------  HLT           13997
8000 0200 0000 4B31 4B31 4B31 4B31 4CC1 S-------  HLT           14001
8000 0200 0000 4B31 4B31 4B31 4B31 4CC1 S-------  HLT           14005
8000 0200 0000 4B31 4B31 4B31 4B31 4CC1 S-------  HLT           14009
8000 0200 0000 4B31 4B31 4B31 4B31 4CC1 S-------  HLT           14013
8000 0200 0000 4B31 4B31 4B31 4B31 4CC1 S-------  HLT           14017
8000 0200 0000 4B31 4B31 4B31 4B31 4CC1 S-------  HLT           14021
8000 0200 0000 4B31 4B31 4B31 4B31 4CC1 S-------  HLT           14025
8000 0200 0000 4B31 4B31 4B31 4B31 4CC1 S-------  HLT           14029
8000 0200 0000 4B31 4B31 4B31 4B31 4CC1 S-------  HLT           14033
8000 0200 0000 4B31 4B31 4B31 4B31 4CC1 S-------  HLT           14037
8000 0200 0000 4B31 4B31 4B31 4B31 4CC1 S-------  HLT           14041
8000 0200 0000 4B31 4B31 4B31 4B31 4CC1 S-------  HLT           14045
8000 0200 0000 4B31 4B31 4B31 4B31 4CC1 S-------  HLT           14049
8000 0200 0000 4B31 4B31 4B31 4B31 4CC1 S-------  HLT           14053
8000 0200 0000 4B31 4B31 4B31 4B31 4CC1 S-------  HLT           14057
8000 0200 0000 4B31 4B31 4B31 4B31 4CC1 S-------  HLT           14061
8000 0200 0000 4B31 4B31 4B31 4B31 4CC1 S-------  HLT           14065
8000 0200 0000 4B31 4B31 4B31 4B31 4CC1 S-------  HLT           14069
8000 0200 0000 4B31 4B31 4B31 4B31 4CC1 S-------  HLT           14073
8000 0200 0000 4B31 4B31 4B31 4B31 4CC1 S-------  HLT           14077
8000 0200 0000 4B31 4B31 4B31 4B31 4CC1 S-------  HLT           14081
8000 0200 0000 4B31 4B31 4B31 4B31 4CC1 S-------  HLT           14085
8000 0200 0000 4B31 4B31 4B31 4B31 4CC1 S-------  HLT           14089
8000 0200 0000 4B31 4B31 4B31 4B31 4CC1 S-------  HLT           14093
8000 0200 0000 4B31 4B31 4B31 4B31 4CC1 S-------  HLT           14097
8000 0200 0000 4B31 4B31 4B31 4B31 4CC1 S-------  HLT           14101
8000 0200 0000 4B31 4B31 4B31 4B31 4CC1 S-------  HLT           14105
8000 0200 0000 4B31 4B31 4B31 4B31 4CC1 S-------  HLT           14109
8000 0200 0000 4B31 4B31 4B31 4B31 4CC1 S-------  HLT           14113
8000 0200 0000 4B31 4B31 4B31 4B31 4CC1 S-------  HLT           14117
8000 0200 0000 4B31 4B31 4B31 4B31 4CC1 S-------  HLT           14121
8000 0200 0000 4B31 4B31 4B31 4B31 4CC1 S-------  HLT           14125
8000 0200 0000 4B31 4B31 4B31 4B31 4CC1 S-------  HLT           14129
8000 0200 0000 4B31 4B31 4B31 4B31 4CC1 S-------  HLT           14133
8000 0200 0000 4B31 4B31 4B31 4B31 4CC1 S-------  HLT           14137
8000 0200 0000 4B31 4B31 4B31 4B31 4CC1 S-------  HLT           14141
8000 0200 0000 4B31 4B31 4B31 4B31 4CC1 S-------  HLT           14145
8000 0200 0000 4B31 4B31 4B31 4B31 4CC1 S-------  HLT           14149
8000 0200 0000 4B31 4B31 4B31 4B31 4CC1 S-------  HLT           14153
8000 0200 0000 4B31 4B31 4B31 4B31 4CC1 S-------  HLT           14157
8000 0200 0000 4B31 4B31 4B31 4B31 4CC1 S-------  HLT           14161
8000 0200 0000 4B31 4B31 4B31 4B31 4CC1 S-------  HLT           14165
8000 0200 0000 4B31 4B31 4B31 4B31 4CC1 S-------  HLT           14169
8000 0200 0000 4B31 4B31 4B31 4B31 4CC1 S-------  HLT           14173
8000 0200 0000 4B31 4B31 4B31 4B31 4CC1 S-------  HLT           14177
8000 0200 0000 4B31 4B31 4B31 4B31 4CC1 S-------  HLT           14181
8000 0200 0000 4B31 4B31 4B31 4B31 4CC1 S-------  HLT           14185
8000 0200 0000 4B31 4B31 4B31 4B31 4CC1 S-------  HLT           14189
8000 0200 0000 4B31 4B31 4B31 4B31 4CC1 S-------  HLT           14193
8000 0200 0000 4B31 4B31 4B31 4B31 4CC1 S-------  HLT           14197
8000 0200 0000 4B31 4B31 4B31 4B31 4CC1 S-------  HLT           14201
8000 0200 0000 4B31 4B31 4B31 4B31 4CC1 S-------  HLT           14205
8000 0200 0000 4B31 4B31 4B31 4B31 4CC1 S-------  HLT           14209
8000 0200 0000 4B31 4B31 4B31 4B31 4CC1 S-------  HLT           14213
8000 0200 0000 4B31 4B31 4B31 4B31 4CC1 S-------  HLT           14217
8000 0200 0000 4B31 4B31 4B31 4B31 4CC1 S-------  HLT           14221
8000 0200 0000 4B31 4B31 4B31 4B31 4CC1 S-------  HLT           14225
8000 0200 0000 4B31 4B31 4B31 4B31 4CC1 S-------  HLT           14229
8000 0200 0000 4B31 4B31 4B31 4B31 4CC1 S-------  HLT           14233
8000 0200 0000 4B31 4B31 4B31 4B31 4CC1 S-------  HLT           14237
8000 0200 0000 4B31 4B31 4B31 4B31 4CC1 S-------  HLT           14241
8000 0200 0000 4B31 4B31 4B31 4B31 4CC1 S-------  HLT           14245
8000 0200 0000 4B31 4B31 4B31 4B31 4CC1 S-------  HLT           14249
8000 0200 0000 4B31 4B31 4B31 4B31 4CC1 S-------  HLT           14253
8000 0200 0000 4B31 4B31 4B31 4B31 4CC1 S-------  HLT           14257
8000 0200 0000 4B31 4B31 4B31 4B31 4CC1 S-------  HLT           14261
8000 0200 0000 4B31 4B31 4B31 4B31 4CC1 S-------  HLT           14265
8000 0200 0000 4B31 4B31 4B31 4B31 4CC1 S-------  HLT           14269
8000 0200 0000 4B31 4B31 4B31 4B31 4CC1 S-------  HLT           14273
8000 0200 0000 4B31 4B31 4B31 4B31 4CC1 S-------  HLT           14277
8000 0200 0000 4B31 4B31 4B31 4B31 4CC1 S-------  HLT           14281
8000 0200 0000 4B31 4B31 4B31 4B31 4CC1 S-------  HLT           14285
8000 0200 0000 4B31 4B31 4B31 4B31 4CC1 S-------  HLT           14289
8000 0200 0000 4B31 4B31 4B31 4B31 4CC1 S-------  HLT           14293
8000 0200 0000 4B31 4B31 4B31 4B31 4CC1 S-------  HLT           14297
8000 0200 0000 4B31 4B31 4B31 4B31 4CC1 S-------  HLT           14301
8000 0200 0000 4B31 4B31 4B31 4B31 4CC1 S-------  HLT           14305
8000 0200 0000 4B31 4B31 4B31 4B31 4CC1 S-------  HLT           14309
8000 0200 0000 4B31 4B31 4B31 4B31 4CC1 S-------  HLT           14313
8000 0200 0000 4B31 4B31 4B31 4B31 4CC1 S-------  HLT           14317
8000 0200 0000 4B31 4B31 4B31 4B31 4CC1 S-------  HLT           14321
8000 0200 0000 4B31 4B31 4B31 4B31 4CC1 S-------  HLT           14325
8000 0200 0000 4B31 4B31 4B31 4B31 4CC1 S-------  HLT           14329
8000 0200 0000 4B31 4B31 4B31 4B31 4CC1 S-------  HLT           14333
8000 0200 0000 4B31 4B31 4B31 4B31 4CC1 S-------  HLT           14337
8000 0200 0000 4B31 4B31 4B31 4B31 4CC1 S-------  HLT           14341
8000 0200 0000 4B31 4B31 4B31 4B31 4CC1 S-------  HLT           14345
8000 0200 0000 4B31 4B31 4B31 4B31 4CC1 S-------  HLT           14349
8000 0200 0000 4B31 4B31 4B31 4B31 4CC1 S-------  HLT           14353
8000 0200 0000 4B31 4B31 4B31 4B31 4CC1 S-------  HLT           14357
8000 0200 0000 4B31 4B31 4B31 4B31 4CC1 S-------  HLT           14361
8000 0200 0000 4B31 4B31 4B31 4B31 4CC1 S-------  HLT           14365
8000 0200 0000 4B31 4B31 4B31 4B31 4CC1 S-------  HLT           14369
8000 0200 0000 4B31 4B31 4B31 4B31 4CC1 S-------  HLT           14373
8000 0200 0000 4B31 4B31 4B31 4B31 4CC1 S-------  HLT           14377
8000 0200 0000 4B31 4B31 4B31 4B31 4CC1 S-------  HLT           14381
8000 0200 0000 4B31 4B31 4B31 4B31 4CC1 S-------  HLT           14385
8000 0200 0000 4B31 4B31 4B31 4B31 4CC1 S-------  HLT           14389
8000 0200 0000 4B31 4B31 4B31 4B31 4CC1 S-------  HLT           14393
8000 0200 0000 4B31 4B31 4B31 4B31 4CC1 S-------  HLT           14397
8000 0200 0000 4B31 4B31 4B31 4B31 4CC1 S-------  HLT           14401
8000 0200 0000 4B31 4B31 4B31 4B31 4CC1 S-------  HLT           14405
8000 0200 0000 4B31 4B31 4B31 4B31 4CC1 S-------  HLT           14409
8000 0200 0000 4B31 4B31 4B31 4B31 4CC1 S-------  HLT           14413
8000 0200 0000 4B31 4B31 4B31 4B31 4CC1 S-------  HLT           14417
8000 0200 0000 4B31 4B31 4B31 4B31 4CC1 S-------  HLT           14421
8000 0200 0000 4B31 4B31 4B31 4B31 4CC1 S-------  HLT           14425
8000 0200 0000 4B31 4B31 4B31 4B31 4CC1 S-------  HLT           14429
8000 0200 0000 4B31 4B31 4B31 4B31 4CC1 S-------  HLT           14433
8000 0200 0000 4B31 4B31 4B31 4B31 4CC1 S-------  HLT           14437
8000 0200 0000 4B31 4B31 4B31 4B31 4CC1 S-------  HLT           14441
8000 0200 0000 4B31 4B31 4B31 4B31 4CC1 S-------  HLT           14445
8000 0200 0000 4B31 4B31 4B31 4B31 4CC1 S-------  HLT           14449
8000 0200 0000 4B31 4B31 4B31 4B31 4CC1 S-------  HLT           14453
8000 0200 0000 4B31 4B31 4B31 4B31 4CC1 S-------  HLT           14457
8000 0200 0000 4B31 4B31 4B31 4B31 4CC1 S-------  HLT           14461
8000 0200 0000 4B31 4B31 4B31 4B31 4CC1 S-------  HLT           14465
8000 0200 0000 4B31 4B31 4B31 4B31 4CC1 S-------  HLT           14469
8000 0200 0000 4B31 4B31 4B31 4B31 4CC1 S-------  HLT           14473
8000 0200 0000 4B31 4B31 4B31 4B31 4CC1 S-------  HLT           14477
8000 0200 0000 4B31 4B31 4B31 4B31 4CC1 S-------  HLT           14481
8000 0200 0000 4B31 4B31 4B31 4B31 4CC1 S-------  HLT           14485
8000 0200 0000 4B31 4B31 4B31 4B31 4CC1 S-------  HLT           14489
8000 0200 0000 4B31 4B31 4B31 4B31 4CC1 S-------  HLT           14493
8000 0200 0000 4B31 4B31 4B31 4B31 4CC1 S-------  HLT           14497
8000 0200 0000 4B31 4B31 4B31 4B31 4CC1 S-------  HLT           14501
8000 0200 0000 4B31 4B31 4B31 4B31 4CC1 S-------  HLT           14505
8000 0200 0000 4B31 4B31 4B31 4B31 4CC1 S-------  HLT           14509
8000 0200 0000 4B31 4B31 4B31 4B31 4CC1 S-------  HLT           14513
8000 0200 0000 4B31 4B31 4B31 4B31 4CC1 S-------  HLT           14517
8000 0200 0000 4B31 4B31 4B31 4B31 4CC1 S-------  HLT           14521
8000 0200 0000 4B31 4B31 4B31 4B31 4CC1 S-------  HLT           14525
8000 0200 0000 4B31 4B31 4B31 4B31 4CC1 S-------  HLT           14529
8000 0200 0000 4B31 4B31 4B31 4B31 4CC1 S-------  HLT           14533
8000 0200 0000 4B31 4B31 4B31 4B31 4CC1 S-------  HLT           14537
8000 0200 0000 4B31 4B31 4B31 4B31 4CC1 S-------  HLT           14541
8000 0200 0000 4B31 4B31 4B31 4B31 4CC1 S-------  HLT           14545
8000 0200 0000 4B31 4B31 4B31 4B31 4CC1 S-------  HLT           14549
8000 0200 0000 4B31 4B31 4B31 4B31 4CC1 S-------  HLT           14553
8000 0200 0000 4B31 4B31 4B31 4B31 4CC1 S-------  HLT           14557
8000 0200 0000 4B31 4B31 4B31 4B31 4CC1 S-------  HLT           14561
8000 0200 0000 4B31 4B31 4B31 4B31 4CC1 S-------  HLT           14565
8000 0200 0000 4B31 4B31 4B31 4B31 4CC1 S-------  HLT           14569
8000 0200 0000 4B31 4B31 4B31 4B31 4CC1 S-------  HLT           14573
8000 0200 0000 4B31 4B31 4B31 4B31 4CC1 S-------  HLT           14577
8000 0200 0000 4B31 4B31 4B31 4B31 4CC1 S-------  HLT           14581
8000 0200 0000 4B31 4B31 4B31 4B31 4CC1 S-------  HLT           14585
8000 0200 0000 4B31 4B31 4B31 4B31 4CC1 S-------  HLT           14589
8000 0200 0000 4B31 4B31 4B31 4B31 4CC1 S-------  HLT           14593
8000 0200 0000 4B31 4B31 4B31 4B31 4CC1 S-------  HLT           14597
8000 0200 0000 4B31 4B31 4B31 4B31 4CC1 S-------  HLT           14601
8000 0200 0000 4B31 4B31 4B31 4B31 4CC1 S-------  HLT           14605
8000 0200 0000 4B31 4B31 4B31 4B31 4CC1 S-------  HLT           14609
8000 0200 0000 4B31 4B31 4B31 4B31 4CC1 S-------  HLT           14613
8000 0200 0000 4B31 4B31 4B31 4B31 4CC1 S-------  HLT           14617
8000 0200 0000 4B31 4B31 4B31 4B31 4CC1 S-------  HLT           14621
8000 0200 0000 4B31 4B31 4B31 4B31 4CC1 S-------  HLT           14625
8000 0200 0000 4B31 4B31 4B31 4B31 4CC1 S-------  HLT           14629
8000 0200 0000 4B31 4B31 4B31 4B31 4CC1 S-------  HLT           14633
8000 0200 0000 4B31 4B31 4B31 4B31 4CC1 S-------  HLT           14637
8000 0200 0000 4B31 4B31 4B31 4B31 4CC1 S-------  HLT           14641
8000 0200 0000 4B31 4B31 4B31 4B31 4CC1 S-------  HLT           14645
8000 0200 0000 4B31 4B31 4B31 4B31 4CC1 S-------  HLT           14649
8000 0200 0000 4B31 4B31 4B31 4B31 4CC1 S-------  HLT           14653
8000 0200 0000 4B31 4B31 4B31 4B31 4CC1 S-------  HLT           14657
8000 0200 0000 4B31 4B31 4B31 4B31 4CC1 S-------  HLT           14661
8000 0200 0000 4B31 4B31 4B31 4B31 4CC1 S-------  HLT           14665
8000 0200 0000 4B31 4B31 4B31 4B31 4CC1 S-------  HLT           14669
8000 0200 0000 4B31 4B31 4B31 4B31 4CC1 S-------  HLT           14673
8000 0200 0000 4B31 4B31 4B31 4B31 4CC1 S-------  HLT           14677
8000 0200 0000 4B31 4B31 4B31 4B31 4CC1 S-------  HLT           14681
8000 0200 0000 4B31 4B31 4B31 4B31 4CC1 S-------  HLT           14685
8000 0200 0000 4B31 4B31 4B31 4B31 4CC1 S-------  HLT           14689
8000 0200 0000 4B31 4B31 4B31 4B31 4CC1 S-------  HLT           14693
8000 0200 0000 4B31 4B31 4B31 4B31 4CC1 S-------  HLT           14697
8000 0200 0000 4B31 4B31 4B31 4B31 4CC1 S-------  HLT           14701
8000 0200 0000 4B31 4B31 4B31 4B31 4CC1 S-------  HLT           14705
8000 0200 0000 4B31 4B31 4B31 4B31 4CC1 S-------  HLT           14709
8000 0200 0000 4B31 4B31 4B31 4B31 4CC1 S-------  HLT           14713
8000 0200 0000 4B31 4B31 4B31 4B31 4CC1 S-------  HLT           14717
8000 0200 0000 4B31 4B31 4B31 4B31 4CC1 S-------  HLT           14721
8000 0200 0000 4B31 4B31 4B31 4B31 4CC1 S-------  HLT           14725
8000 0200 0000 4B31 4B31 4B31 4B31 4CC1 S-------  HLT           14729
8000 0200 0000 4B31 4B31 4B31 4B31 4CC1 S-------  HLT           14733
8000 0200 0000 4B31 4B31 4B31 4B31 4CC1 S-------  HLT           14737
8000 0200 0000 4B31 4B31 4B31 4B31 4CC1 S-------  HLT           14741
8000 0200 0000 4B31 4B31 4B31 4B31 4CC1 S-------  HLT           14745
8000 0200 0000 4B31 4B31 4B31 4B31 4CC1 S-------  HLT           14749
8000 0200 0000 4B31 4B31 4B31 4B31 4CC1 S-------  HLT           14753
8000 0200 0000 4B31 4B31 4B31 4B31 4CC1 S-------  HLT           14757
8000 0200 0000 4B31 4B31 4B31 4B31 4CC1 S-------  HLT           14761
8000 0200 0000 4B31 4B31 4B31 4B31 4CC1 S-------  HLT           14765
8000 0200 0000 4B31 4B31 4B31 4B31 4CC1 S-------  HLT           14769
8000 0200 0000 4B31 4B31 4B31 4B31 4CC1 S-------  HLT           14773
8000 0200 0000 4B31 4B31 4B31 4B31 4CC1 S-------  HLT           14777
8000 0200 0000 4B31 4B31 4B31 4B31 4CC1 S-------  HLT           14781
8000 0200 0000 4B31 4B31 4B31 4B31 4CC1 S-------  HLT           14785
8000 0200 0000 4B31 4B31 4B31 4B31 4CC1 S-------  HLT           14789
8000 0200 0000 4B31 4B31 4B31 4B31 4CC1 S-------  HLT           14793
8000 0200 0000 4B31 4B31 4B31 4B31 4CC1 S-------  HLT           14797
8000 0200 0000 4B31 4B31 4B31 4B31 4CC1 S-------  HLT           14801
8000 0200 0000 4B31 4B31 4B31 4B31 4CC1 S-------  HLT           14805
8000 0200 0000 4B31 4B31 4B31 4B31 4CC1 S-------  HLT           14809
8000 0200 0000 4B31 4B31 4B31 4B31 4CC1 S-------  HLT           14813
8000 0200 0000 4B31 4B31 4B31 4B31 4CC1 S-------  HLT           14817
8000 0200 0000 4B31 4B31 4B31 4B31 4CC1 S-------  HLT           14821
8000 0200 0000 4B31 4B31 4B31 4B31 4CC1 S-------  HLT           14825
8000 0200 0000 4B31 4B31 4B31 4B31 4CC1 S-------  HLT           14829
8000 0200 0000 4B31 4B31 4B31 4B31 4CC1 S-------  HLT           14833
8000 0200 0000 4B31 4B31 4B31 4B31 4CC1 S-------  HLT           14837
8000 0200 0000 4B31 4B31 4B31 4B31 4CC1 S-------  HLT           14841
8000 0200 0000 4B31 4B31 4B31 4B31 4CC1 S-------  HLT           14845
8000 0200 0000 4B31 4B31 4B31 4B31 4CC1 S-------  HLT           14849
8000 0200 0000 4B31 4B31 4B31 4B31 4CC1 S-------  HLT           14853
8000 0200 0000 4B31 4B31 4B31 4B31 4CC1 S-------  HLT           14857
8000 0200 0000 4B31 4B31 4B31 4B31 4CC1 S-------  HLT           14861
8000 0200 0000 4B31 4B31 4B31 4B31 4CC1 S-------  HLT           14865
8000 0200 0000 4B31 4B31 4B31 4B31 4CC1 S-------  HLT           14869
8000 0200 0000 4B31 4B31 4B31 4B31 4CC1 S-------  HLT           14873
8000 0200 0000 4B31 4B31 4B31 4B31 4CC1 S-------  HLT           14877
8000 0200 0000 4B31 4B31 4B31 4B31 4CC1 S-------  HLT           14881
8000 0200 0000 4B31 4B31 4B31 4B31 4CC1 S-------  HLT           14885
8000 0200 0000 4B31 4B31 4B31 4B31 4CC1 S-------  HLT           14889
8000 0200 0000 4B31 4B31 4B31 4B31 4CC1 S-------  HLT           14893
8000 0200 0000 4B31 4B31 4B31 4B31 4CC1 S-------  HLT           14897
8000 0200 0000 4B31 4B31 4B31 4B31 4CC1 S-------  HLT           14901
8000 0200 0000 4B31 4B31 4B31 4B31 4CC1 S-------  HLT           14905
8000 0200 0000 4B31 4B31 4B31 4B31 4CC1 S-------  HLT           14909
8000 0200 0000 4B31 4B31 4B31 4B31 4CC1 S-------  HLT           14913
8000 0200 0000 4B31 4B31 4B31 4B31 4CC1 S-------  HLT           14917
8000 0200 0000 4B31 4B31 4B31 4B31 4CC1 S-------  HLT           14921
8000 0200 0000 4B31 4B31 4B31 4B31 4CC1 S-------  HLT           14925
8000 0200 0000 4B31 4B31 4B31 4B31 4CC1 S-------  HLT           14929
8000 0200 0000 4B31 4B31 4B31 4B31 4CC1 S-------  HLT           14933
8000 0200 0000 4B31 4B31 4B31 4B31 4CC1 S-------  HLT           14937
8000 0200 0000 4B31 4B31 4B31 4B31 4CC1 S-------  HLT           14941
8000 0200 0000 4B31 4B31 4B31 4B31 4CC1 S-------  HLT           14945
8000 0200 0000 4B31 4B31 4B31 4B31 4CC1 S-------  HLT           14949
8000 0200 0000 4B31 4B31 4B31 4B31 4CC1 S-------  HLT           14953
8000 0200 0000 4B31 4B31 4B31 4B31 4CC1 S-------  HLT           14957
8000 0200 0000 4B31 4B31 4B31 4B31 4CC1 S-------  HLT           14961
8000 0200 0000 4B31 4B31 4B31 4B31 4CC1 S-------  HLT           14965
8000 0200 0000 4B31 4B31 4B31 4B31 4CC1 S-------  HLT           14969
8000 0200 0000 4B31 4B31 4B31 4B31 4CC1 S-------  HLT           14973
8000 0200 0000 4B31 4B31 4B31 4B31 4CC1 S-------  HLT           14977
8000 0200 0000 4B31 4B31 4B31 4B31 4CC1 S-------  HLT           14981
8000 0200 0000 4B31 4B31 4B31 4B31 4CC1 S-------  HLT           14985
8000 0200 0000 4B31 4B31 4B31 4B31 4CC1 S-------  HLT           14989
8000 0200 0000 4B31 4B31 4B31 4B31 4CC1 S-------  HLT           14993
8000 0200 0000 4B31 4B31 4B31 4B31 4CC1 S-------  HLT           14997
8000 0200 0000 4B31 4B31 4B31 4B31 4CC1 S-------  HLT           15001
8000 0200 0000 4B31 4B31 4B31 4B31 4CC1 S-------  HLT           15005
8000 0200 0000 4B31 4B31 4B31 4B31 4CC1 S-------  HLT           15009
8000 0200 0000 4B31 4B31 4B31 4B31 4CC1 S-------  HLT           15013
8000 0200 0000 4B31 4B31 4B31 4B31 4CC1 S-------  HLT           15017
8000 0200 0000 4B31 4B31 4B31 4B31 4CC1 S-------  HLT           15021
8000 0200 0000 4B31 4B31 4B31 4B31 4CC1 S-------  HLT           15025
8000 0200 0000 4B31 4B31 4B31 4B31 4CC1 S-------  HLT           15029
8000 0200 0000 4B31 4B31 4B31 4B31 4CC1 S-------  HLT           15033
8000 0200 0000 4B31 4B31 4B31 4B31 4CC1 S-------  HLT           15037
8000 0200 0000 4B31 4B31 4B31 4B31 4CC1 S-------  HLT           15041
8000 0200 0000 4B31 4B31 4B31 4B31 4CC1 S-------  HLT           15045
8000 0200 0000 4B31 4B31 4B31 4B31 4CC1 S-------  HLT           15049
8000 0200 0000 4B31 4B31 4B31 4B31 4CC1 S-------  HLT           15053
8000 0200 0000 4B31 4B31 4B31 4B31 4CC1 S-------  HLT           15057
8000 0200 0000 4B31 4B31 4B31 4B31 4CC1 S-------  HLT           15061
8000 0200 0000 4B31 4B31 4B31 4B31 4CC1 S-------  HLT           15065
8000 0200 0000 4B31 4B31 4B31 4B31 4CC1 S-------  HLT           15069
8000 0200 0000 4B31 4B31 4B31 4B31 4CC1 S-------  HLT           15073
8000 0200 0000 4B31 4B31 4B31 4B31 4CC1 S-------  HLT           15077
8000 0200 0000 4B31 4B31 4B31 4B31 4CC1 S-------  HLT           15081
8000 0200 0000 4B31 4B31 4B31 4B31 4CC1 S-------  HLT           15085
8000 0200 0000 4B31 4B31 4B31 4B31 4CC1 S-------  HLT           15089
8000 0200 0000 4B31 4B31 4B31 4B31 4CC1 S-------  HLT           15093
8000 0200 0000 4B31 4B31 4B31 4B31 4CC1 S-------  HLT           15097
8000 0200 0000 4B31 4B31 4B31 4B31 4CC1 S-------  HLT           15101
8000 0200 0000 4B31 4B31 4B31 4B31 4CC1 S-------  HLT           15105
8000 0200 0000 4B31 4B31 4B31 4B31 4CC1 S-------  HLT           15109
8000 0200 0000 4B31 4B31 4B31 4B31 4CC1 S-------  HLT           15113
8000 0200 0000 4B31 4B31 4B31 4B31 4CC1 S-------  HLT           15117
8000 0200 0000 4B31 4B31 4B31 4B31 4CC1 S-------  HLT           15121
8000 0200 0000 4B31 4B31 4B31 4B31 4CC1 S-------  HLT           15125
8000 0200 0000 4B31 4B31 4B31 4B31 4CC1 S-------  HLT           15129
8000 0200 0000 4B31 4B31 4B31 4B31 4CC1 S-------  HLT           15133
8000 0200 0000 4B31 4B31 4B31 4B31 4CC1 S-------  HLT           15137
8000 0200 0000 4B31 4B31 4B31 4B31 4CC1 S-------  HLT           15141
8000 0200 0000 4B31 4B31 4B31 4B31 4CC1 S-------  HLT           15145
8000 0200 0000 4B31 4B31 4B31 4B31 4CC1 S-------  HLT           15149
8000 0200 0000 4B31 4B31 4B31 4B31 4CC1 S-------  HLT           15153
8000 0200 0000 4B31 4B31 4B31 4B31 4CC1 S-------  HLT           15157
8000 0200 0000 4B31 4B31 4B31 4B31 4CC1 S-------  HLT           15161
8000 0200 0000 4B31 4B31 4B31 4B31 4CC1 S-------  HLT           15165
8000 0200 0000 4B31 4B31 4B31 4B31 4CC1 S-------  HLT           15169
8000 0200 0000 4B31 4B31 4B31 4B31 4CC1 S-------  HLT           15173
8000 0200 0000 4B31 4B31 4B31 4B31 4CC1 S-------  HLT           15177
8000 0200 0000 4B31 4B31 4B31 4B31 4CC1 S-------  HLT           15181
8000 0200 0000 4B31 4B31 4B31 4B31 4CC1 S-------  HLT           15185
8000 0200 0000 4B31 4B31 4B31 4B31 4CC1 S-------  HLT           15189
8000 0200 0000 4B31 4B31 4B31 4B31 4CC1 S-------  HLT           15193
8000 0200 0000 4B31 4B31 4B31 4B31 4CC1 S-------  HLT           15197
8000 0200 0000 4B31 4B31 4B31 4B31 4CC1 S-------  HLT           15201
8000 0200 0000 4B31 4B31 4B31 4B31 4CC1 S-------  HLT           15205
8000 0200 0000 4B31 4B31 4B31 4B31 4CC1 S-------  HLT           15209
8000 0200 0000 4B31 4B31 4B31 4B31 4CC1 S-------  HLT           15213
8000 0200 0000 4B31 4B31 4B31 4B31 4CC1 S-------  HLT           15217
8000 0200 0000 4B31 4B31 4B31 4B31 4CC1 S-------  HLT           15221
8000 0200 0000 4B31 4B31 4B31 4B31 4CC1 S-------  HLT           15225
8000 0200 0000 4B31 4B31 4B31 4B31 4CC1 S-------  HLT           15229
8000 0200 0000 4B31 4B31 4B31 4B31 4CC1 S-------  HLT           15233
8000 0200 0000 4B31 4B31 4B31 4B31 4CC1 S-------  HLT           15237
8000 0200 0000 4B31 4B31 4B31 4B31 4CC1 S-------  HLT           15241
8000 0200 0000 4B31 4B31 4B31 4B31 4CC1 S-------  HLT           15245
8000 0200 0000 4B31 4B31 4B31 4B31 4CC1 S-------  HLT           15249
8000 0200 0000 4B31 4B31 4B31 4B31 4CC1 S-------  HLT           15253
8000 0200 0000 4B31 4B31 4B31 4B31 4CC1 S-------  HLT           15257
8000 0200 0000 4B31 4B31 4B31 4B31 4CC1 S-------  HLT           15261
8000 0200 0000 4B31 4B31 4B31 4B31 4CC1 S-------  HLT           15265
8000 0200 0000 4B31 4B31 4B31 4B31 4CC1 S-------  HLT           15269
8000 0200 0000 4B31 4B31 4B31 4B31 4CC1 S-------  HLT           15273
8000 0200 0000 4B31 4B31 4B31 4B31 4CC1 S-------  HLT           15277
8000 0200 0000 4B31 4B31 4B31 4B31 4CC1 S-------  HLT           15281
8000 0200 0000 4B31 4B31 4B31 4B31 4CC1 S-------  HLT           15285
8000 0200 0000 4B31 4B31 4B31 4B31 4CC1 S-------  HLT           15289
8000 0200 0000 4B31 4B31 4B31 4B31 4CC1 S-------  HLT           15293
8000 0200 0000 4B31 4B31 4B31 4B31 4CC1 S-------  HLT           15297
8000 0200 0000 4B31 4B31 4B31 4B31 4CC1 S-------  HLT           15301
8000 0200 0000 4B31 4B31 4B31 4B31 4CC1 S-------  HLT           15305
8000 0200 0000 4B31 4B31 4B31 4B31 4CC1 S-------  HLT           15309
8000 0200 0000 4B31 4B31 4B31 4B31 4CC1 S-------  HLT           15313
8000 0200 0000 4B31 4B31 4B31 4B31 4CC1 S-------  HLT           15317
8000 0200 0000 4B31 4B31 4B31 4B31 4CC1 S-------  HLT           15321
8000 0200 0000 4B31 4B31 4B31 4B31 4CC1 S-------  HLT           15325
8000 0200 0000 4B31 4B31 4B31 4B31 4CC1 S-------  HLT           15329
8000 0200 0000 4B31 4B31 4B31 4B31 4CC1 S-------  HLT           15333
8000 0200 0000 4B31 4B31 4B31 4B31 4CC1 S-------  HLT           15337
8000 0200 0000 4B31 4B31 4B31 4B31 4CC1 S-------  HLT           15341
8000 0200 0000 4B31 4B31 4B31 4B31 4CC1 S-------  HLT           15345
8000 0200 0000 4B31 4B31 4B31 4B31 4CC1 S-------  HLT           15349
8000 0200 0000 4B31 4B31 4B31 4B31 4CC1 S-------  HLT           15353
8000 0200 0000 4B31 4B31 4B31 4B31 4CC1 S-------  HLT           15357
8000 0200 0000 4B31 4B31 4B31 4B31 4CC1 S-------  HLT           15361
8000 0200 0000 4B31 4B31 4B31 4B31 4CC1 S-------  HLT           15365
8000 0200 0000 4B31 4B31 4B31 4B31 4CC1 S-------  HLT           15369
8000 0200 0000 4B31 4B31 4B31 4B31 4CC1 S-------  HLT           15373
8000 0200 0000 4B31 4B31 4B31 4B31 4CC1 S-------  HLT           15377
8000 0200 0000 4B31 4B31 4B31 4B31 4CC1 S-------  HLT           15381
8000 0200 0000 4B31 4B31 4B31 4B31 4CC1 S-------  HLT           15385
8000 0200 0000 4B31 4B31 4B31 4B31 4CC1 S-------  HLT           15389
8000 0200 0000 4B31 4B31 4B31 4B31 4CC1 S-------  HLT           15393
8000 0200 0000 4B31 4B31 4B31 4B31 4CC1 S-------  HLT           15397
8000 0200 0000 4B31 4B31 4B31 4B31 4CC1 S-------  HLT           15401
8000 0200 0000 4B31 4B31 4B31 4B31 4CC1 S-------  HLT           15405
8000 0200 0000 4B31 4B31 4B31 4B31 4CC1 S-------  HLT           15409
8000 0200 0000 4B31 4B31 4B31 4B31 4CC1 S-------  HLT           15413
8000 0200 0000 4B31 4B31 4B31 4B31 4CC1 S-------  HLT           15417
8000 0200 0000 4B31 4B31 4B31 4B31 4CC1 S-------  HLT           15421
8000 0200 0000 4B31 4B31 4B31 4B31 4CC1 S-------  HLT           15425
8000 0200 0000 4B31 4B31 4B31 4B31 4CC1 S-------  HLT           15429
8000 0200 0000 4B31 4B31 4B31 4B31 4CC1 S-------  HLT           15433
8000 0200 0000 4B31 4B31 4B31 4B31 4CC1 S-------  HLT           15437
8000 0200 0000 4B31 4B31 4B31 4B31 4CC1 S-------  HLT           15441
8000 0200 0000 4B31 4B31 4B31 4B31 4CC1 S-------  HLT           15445
8000 0200 0000 4B31 4B31 4B31 4B31 4CC1 S-------  HLT           15449
8000 0200 0000 4B31 4B31 4B31 4B31 4CC1 S-------  HLT           15453
8000 0200 0000 4B31 4B31 4B31 4B31 4CC1 S-------  HLT           15457
8000 0200 0000 4B31 4B31 4B31 4B31 4CC1 S-------  HLT           15461
8000 0200 0000 4B31 4B31 4B31 4B31 4CC1 S-------  HLT           15465
8000 0200 0000 4B31 4B31 4B31 4B31 4CC1 S-------  HLT           15469
8000 0200 0000 4B31 4B31 4B31 4B31 4CC1 S-------  HLT           15473
8000 0200 0000 4B31 4B31 4B31 4B31 4CC1 S-------  HLT           15477
8000 0200 0000 4B31 4B31 4B31 4B31 4CC1 S-------  HLT           15481
8000 0200 0000 4B31 4B31 4B31 4B31 4CC1 S-------  HLT           15485
8000 0200 0000 4B31 4B31 4B31 4B31 4CC1 S-------  HLT           15489
8000 0200 0000 4B31 4B31 4B31 4B31 4CC1 S-------  HLT           15493
8000 0200 0000 4B31 4B31 4B31 4B31 4CC1 S-------  HLT           15497
8000 0200 0000 4B31 4B31 4B31 4B31 4CC1 S-------  HLT           15501
8000 0200 0000 4B31 4B31 4B31 4B31 4CC1 S-------  HLT           15505
8000 0200 0000 4B31 4B31 4B31 4B31 4CC1 S-------  HLT           15509
8000 0200 0000 4B31 4B31 4B31 4B31 4CC1 S-------  HLT           15513
8000 0200 0000 4B31 4B31 4B31 4B31 4CC1 S-------  HLT           15517
8000 0200 0000 4B31 4B31 4B31 4B31 4CC1 S-------  HLT           15521
8000 0200 0000 4B31 4B31 4B31 4B31 4CC1 S-------  HLT           15525
8000 0200 0000 4B31 4B31 4B31 4B31 4CC1 S-------  HLT           15529
8000 0200 0000 4B31 4B31 4B31 4B31 4CC1 S-------  HLT           15533
8000 0200 0000 4B31 4B31 4B31 4B31 4CC1 S-------  HLT           15537
8000 0200 0000 4B31 4B31 4B31 4B31 4CC1 S-------  HLT           15541
8000 0200 0000 4B31 4B31 4B31 4B31 4CC1 S-------  HLT           15545
8000 0200 0000 4B31 4B31 4B31 4B31 4CC1 S-------  HLT           15549
8000 0200 0000 4B31 4B31 4B31 4B31 4CC1 S-------  HLT           15553
8000 0200 0000 4B31 4B31 4B31 4B31 4CC1 S-------  HLT           15557
8000 0200 0000 4B31 4B31 4B31 4B31 4CC1 S-------  HLT           15561
8000 0200 0000 4B31 4B31 4B31 4B31 4CC1 S-------  HLT           15565
8000 0200 0000 4B31 4B31 4B31 4B31 4CC1 S-------  HLT           15569
8000 0200 0000 4B31 4B31 4B31 4B31 4CC1 S-------  HLT           15573
8000 0200 0000 4B31 4B31 4B31 4B31 4CC1 S-------  HLT           15577
8000 0200 0000 4B31 4B31 4B31 4B31 4CC1 S-------  HLT           15581
8000 0200 0000 4B31 4B31 4B31 4B31 4CC1 S-------  HLT           15585
8000 0200 0000 4B31 4B31 4B31 4B31 4CC1 S-------  HLT           15589
8000 0200 0000 4B31 4B31 4B31 4B31 4CC1 S-------  HLT           15593
8000 0200 0000 4B31 4B31 4B31 4B31 4CC1 S-------  HLT           15597
8000 0200 0000 4B31 4B31 4B31 4B31 4CC1 S-------  HLT           15601
8000 0200 0000 4B31 4B31 4B31 4B31 4CC1 S-------  HLT           15605
8000 0200 0000 4B31 4B31 4B31 4B31 4CC1 S-------  HLT           15609
8000 0200 0000 4B31 4B31 4B31 4B31 4CC1 S-------  HLT           15613
8000 0200 0000 4B31 4B31 4B31 4B31 4CC1 S-------  HLT           15617
8000 0200 0000 4B31 4B31 4B31 4B31 4CC1 S-------  HLT           15621
8000 0200 0000 4B31 4B31 4B31 4B31 4CC1 S-------  HLT           15625
8000 0200 0000 4B31 4B31 4B31 4B31 4CC1 S-------  HLT           15629
8000 0200 0000 4B31 4B31 4B31 4B31 4CC1 S-------  HLT           15633
8000 0200 0000 4B31 4B31 4B31 4B31 4CC1 S-------  HLT           15637
8000 0200 0000 4B31 4B31 4B31 4B31 4CC1 S-------  HLT           15641
8000 0200 0000 4B31 4B31 4B31 4B31 4CC1 S-------  HLT           15645
8000 0200 0000 4B31 4B31 4B31 4B31 4CC1 S-------  HLT           15649
8000 0200 0000 4B31 4B31 4B31 4B31 4CC1 S-------  HLT           15653
8000 0200 0000 4B31 4B31 4B31 4B31 4CC1 S-------  HLT           15657
8000 0200 0000 4B31 4B31 4B31 4B31 4CC1 S-------  HLT           15661
8000 0200 0000 4B31 4B31 4B31 4B31 4CC1 S-------  HLT           15665
8000 0200 0000 4B31 4B31 4B31 4B31 4CC1 S-------  HLT           15669
8000 0200 0000 4B31 4B31 4B31 4B31 4CC1 S-------  HLT           15673
8000 0200 0000 4B31 4B31 4B31 4B31 4CC1 S-------  HLT           15677
8000 0200 0000 4B31 4B31 4B31 4B31 4CC1 S-------  HLT           15681
8000 0200 0000 4B31 4B31 4B31 4B31 4CC1 S-------  HLT           15685
8000 0200 0000 4B31 4B31 4B31 4B31 4CC1 S-------  HLT           15689
8000 0200 0000 4B31 4B31 4B31 4B31 4CC1 S-------  HLT           15693
8000 0200 0000 4B31 4B31 4B31 4B31 4CC1 S-------  HLT           15697
8000 0200 0000 4B31 4B31 4B31 4B31 4CC1 S-------  HLT           15701
8000 0200 0000 4B31 4B31 4B31 4B31 4CC1 S-------  HLT           15705
8000 0200 0000 4B31 4B31 4B31 4B31 4CC1 S-------  HLT           15709
8000 0200 0000 4B31 4B31 4B31 4B31 4CC1 S-------  HLT           15713
8000 0200 0000 4B31 4B31 4B31 4B31 4CC1 S-------  HLT           15717
8000 0200 0000 4B31 4B31 4B31 4B31 4CC1 S-------  HLT           15721
8000 0200 0000 4B31 4B31 4B31 4B31 4CC1 S-------  HLT           15725
8000 0200 0000 4B31 4B31 4B31 4B31 4CC1 S-------  HLT           15729
8000 0200 0000 4B31 4B31 4B31 4B31 4CC1 S-------  HLT           15733
8000 0200 0000 4B31 4B31 4B31 4B31 4CC1 S-------  HLT           15737
8000 0200 0000 4B31 4B31 4B31 4B31 4CC1 S-------  HLT           15741
8000 0200 0000 4B31 4B31 4B31 4B31 4CC1 S-------  HLT           15745
8000 0200 0000 4B31 4B31 4B31 4B31 4CC1 S-------  HLT           15749
8000 0200 0000 4B31 4B31 4B31 4B31 4CC1 S-------  HLT           15753
8000 0200 0000 4B31 4B31 4B31 4B31 4CC1 S-------  HLT           15757
8000 0200 0000 4B31 4B31 4B31 4B31 4CC1 S-------  HLT           15761
8000 0200 0000 4B31 4B31 4B31 4B31 4CC1 S-------  HLT           15765
8000 0200 0000 4B31 4B31 4B31 4B31 4CC1 S-------  HLT           15769
8000 0200 0000 4B31 4B31 4B31 4B31 4CC1 S-------  HLT           15773
8000 0200 0000 4B31 4B31 4B31 4B31 4CC1 S-------  HLT           15777
8000 0200 0000 4B31 4B31 4B31 4B31 4CC1 S-------  HLT           15781
8000 0200 0000 4B31 4B31 4B31 4B31 4CC1 S-------  HLT           15785
8000 0200 0000 4B31 4B31 4B31 4B31 4CC1 S-------  HLT           15789
8000 0200 0000 4B31 4B31 4B31 4B31 4CC1 S-------  HLT           15793
8000 0200 0000 4B31 4B31 4B31 4B31 4CC1 S-------  HLT           15797
8000 0200 0000 4B31 4B31 4B31 4B31 4CC1 S-------  HLT           15801
8000 0200 0000 4B31 4B31 4B31 4B31 4CC1 S-------  HLT           15805
8000 0200 0000 4B31 4B31 4B31 4B31 4CC1 S-------  HLT           15809
8000 0200 0000 4B31 4B31 4B31 4B31 4CC1 S-------  HLT           15813
8000 0200 0000 4B31 4B31 4B31 4B31 4CC1 S-------  HLT           15817
8000 0200 0000 4B31 4B31 4B31 4B31 4CC1 S-------  HLT           15821
8000 0200 0000 4B31 4B31 4B31 4B31 4CC1 S-------  HLT           15825
8000 0200 0000 4B31 4B31 4B31 4B31 4CC1 S-------  HLT           15829
8000 0200 0000 4B31 4B31 4B31 4B31 4CC1 S-------  HLT           15833
8000 0200 0000 4B31 4B31 4B31 4B31 4CC1 S-------  HLT           15837
8000 0200 0000 4B31 4B31 4B31 4B31 4CC1 S-------  HLT           15841
8000 0200 0000 4B31 4B31 4B31 4B31 4CC1 S-------  HLT           15845
8000 0200 0000 4B31 4B31 4B31 4B31 4CC1 S-------  HLT           15849
8000 0200 0000 4B31 4B31 4B31 4B31 4CC1 S-------  HLT           15853
8000 0200 0000 4B31 4B31 4B31 4B31 4CC1 S-------  HLT           15857
8000 0200 0000 4B31 4B31 4B31 4B31 4CC1 S-------  HLT           15861
8000 0200 0000 4B31 4B31 4B31 4B31 4CC1 S-------  HLT           15865
8000 0200 0000 4B31 4B31 4B31 4B31 4CC1 S-------  HLT           15869
8000 0200 0000 4B31 4B31 4B31 4B31 4CC1 S-------  HLT           15873
8000 0200 0000 4B31 4B31 4B31 4B31 4CC1 S-------  HLT           15877
8000 0200 0000 4B31 4B31 4B31 4B31 4CC1 S-------  HLT           15881
8000 0200 0000 4B31 4B31 4B31 4B31 4CC1 S-------  HLT           15885
8000 0200 0000 4B31 4B31 4B31 4B31 4CC1 S-------  HLT           15889
8000 0200 0000 4B31 4B31 4B31 4B31 4CC1 S-------  HLT           15893
8000 0200 0000 4B31 4B31 4B31 4B31 4CC1 S-------  HLT           15897
8000 0200 0000 4B31 4B31 4B31 4B31 4CC1 S-------  HLT           15901
8000 0200 0000 4B31 4B31 4B31 4B31 4CC1 S-------  HLT           15905
8000 0200 0000 4B31 4B31 4B31 4B31 4CC1 S-------  HLT           15909
8000 0200 0000 4B31 4B31 4B31 4B31 4CC1 S-------  HLT           15913
8000 0200 0000 4B31 4B31 4B31 4B31 4CC1 S-------  HLT           15917
8000 0200 0000 4B31 4B31 4B31 4B31 4CC1 S-------  HLT           15921
8000 0200 0000 4B31 4B31 4B31 4B31 4CC1 S-------  HLT           15925
8000 0200 0000 4B31 4B31 4B31 4B31 4CC1 S-------  HLT           15929
8000 0200 0000 4B31 4B31 4B31 4B31 4CC1 S-------  HLT           15933
8000 0200 0000 4B31 4B31 4B31 4B31 4CC1 S-------  HLT           15937
8000 0200 0000 4B31 4B31 4B31 4B31 4CC1 S-------  HLT           15941
8000 0200 0000 4B31 4B31 4B31 4B31 4CC1 S-------  HLT           15945
8000 0200 0000 4B31 4B31 4B31 4B31 4CC1 S-------  HLT           15949
8000 0200 0000 4B31 4B31 4B31 4B31 4CC1 S-------  HLT           15953
8000 0200 0000 4B31 4B31 4B31 4B31 4CC1 S-------  HLT           15957
8000 0200 0000 4B31 4B31 4B31 4B31 4CC1 S-------  HLT           15961
8000 0200 0000 4B31 4B31 4B31 4B31 4CC1 S-------  HLT           15965
8000 0200 0000 4B31 4B31 4B31 4B31 4CC1 S-------  HLT           15969
8000 0200 0000 4B31 4B31 4B31 4B31 4CC1 S-------  HLT           15973
8000 0200 0000 4B31 4B31 4B31 4B31 4CC1 S-------  HLT           15977
8000 0200 0000 4B31 4B31 4B31 4B31 4CC1 S-------  HLT           15981
8000 0200 0000 4B31 4B31 4B31 4B31 4CC1 S-------  HLT           15985
8000 0200 0000 4B31 4B31 4B31 4B31 4CC1 S-------  HLT           15989
8000 0200 0000 4B31 4B31 4B31 4B31 4CC1 S-------  HLT           15993
8000 0200 0000 4B31 4B31 4B31 4B31 4CC1 S-------  HLT           15997
8000 0200 0000 4B31 4B31 4B31 4B31 4CC1 S-------  HLT           16001
8000 0200 0000 4B31 4B31 4B31 4B31 4CC1 S-------  HLT           16005
8000 0200 0000 4B31 4B31 4B31 4B31 4CC1 S-------  HLT           16009
8000 0200 0000 4B31 4B31 4B31 4B31 4CC1 S-------  HLT           16013
8000 0200 0000 4B31 4B31 4B31 4B31 4CC1 S-------  HLT           16017
8000 0200 0000 4B31 4B31 4B31 4B31 4CC1 S-------  HLT           16021
8000 0200 0000 4B31 4B31 4B31 4B31 4CC1 S-------  HLT           16025
8000 0200 0000 4B31 4B31 4B31 4B31 4CC1 S-------  HLT           16029
8000 0200 0000 4B31 4B31 4B31 4B31 4CC1 S-------  HLT           16033
8000 0200 0000 4B31 4B31 4B31 4B31 4CC1 S-------  HLT           16037
8000 0200 0000 4B31 4B31 4B31 4B31 4CC1 S-------  HLT           16041
8000 0200 0000 4B31 4B31 4B31 4B31 4CC1 S-------  HLT           16045
8000 0200 0000 4B31 4B31 4B31 4B31 4CC1 S-------  HLT           16049
8000 0200 0000 4B31 4B31 4B31 4B31 4CC1 S-------  HLT           16053
8000 0200 0000 4B31 4B31 4B31 4B31 4CC1 S-------  HLT           16057
8000 0200 0000 4B31 4B31 4B31 4B31 4CC1 S-------  HLT           16061
8000 0200 0000 4B31 4B31 4B31 4B31 4CC1 S-------  HLT           16065
8000 0200 0000 4B31 4B31 4B31 4B31 4CC1 S-------  HLT           16069
8000 0200 0000 4B31 4B31 4B31 4B31 4CC1 S-------  HLT           16073
8000 0200 0000 4B31 4B31 4B31 4B31 4CC1 S-------  HLT           16077
8000 0200 0000 4B31 4B31 4B31 4B31 4CC1 S-------  HLT           16081
8000 0200 0000 4B31 4B31 4B31 4B31 4CC1 S-------  HLT           16085
8000 0200 0000 4B31 4B31 4B31 4B31 4CC1 S-------  HLT           16089
8000 0200 0000 4B31 4B31 4B31 4B31 4CC1 S-------  HLT           16093
8000 0200 0000 4B31 4B31 4B31 4B31 4CC1 S-------  HLT           16097
8000 0200 0000 4B31 4B31 4B31 4B31 4CC1 S-------  HLT           16101
8000 0200 0000 4B31 4B31 4B31 4B31 4CC1 S-------  HLT           16105
8000 0200 0000 4B31 4B31 4B31 4B31 4CC1 S-------  HLT           16109
8000 0200 0000 4B31 4B31 4B31 4B31 4CC1 S-------  HLT           16113
8000 0200 0000 4B31 4B31 4B31 4B31 4CC1 S-------  HLT           16117
8000 0200 0000 4B31 4B31 4B31 4B31 4CC1 S-------  HLT           16121
8000 0200 0000 4B31 4B31 4B31 4B31 4CC1 S-------  HLT           16125
8000 0200 0000 4B31 4B31 4B31 4B31 4CC1 S-------  HLT           16129
8000 0200 0000 4B31 4B31 4B31 4B31 4CC1 S-------  HLT           16133
8000 0200 0000 4B31 4B31 4B31 4B31 4CC1 S-------  HLT           16137
8000 0200 0000 4B31 4B31 4B31 4B31 4CC1 S-------  HLT           16141
8000 0200 0000 4B31 4B31 4B31 4B31 4CC1 S-------  HLT           16145
8000 0200 0000 4B31 4B31 4B31 4B31 4CC1 S-------  HLT           16149
8000 0200 0000 4B31 4B31 4B31 4B31 4CC1 S-------  HLT           16153
8000 0200 0000 4B31 4B31 4B31 4B31 4CC1 S-------  HLT           16157
8000 0200 0000 4B31 4B31 4B31 4B31 4CC1 S-------  HLT           16161
8000 0200 0000 4B31 4B31 4B31 4B31 4CC1 S-------  HLT           16165
8000 0200 0000 4B31 4B31 4B31 4B31 4CC1 S-------  HLT           16169
8000 0200 0000 4B31 4B31 4B31 4B31 4CC1 S-------  HLT           16173
8000 0200 0000 4B31 4B31 4B31 4B31 4CC1 S-------  HLT           16177
8000 0200 0000 4B31 4B31 4B31 4B31 4CC1 S-------  HLT           16181
8000 0200 0000 4B31 4B31 4B31 4B31 4CC1 S-------  HLT           16185
8000 0200 0000 4B31 4B31 4B31 4B31 4CC1 S-------  HLT           16189
8000 0200 0000 4B31 4B31 4B31 4B31 4CC1 S-------  HLT           16193
8000 0200 0000 4B31 4B31 4B31 4B31 4CC1 S-------  HLT           16197
8000 0200 0000 4B31 4B31 4B31 4B31 4CC1 S-------  HLT           16201
8000 0200 0000 4B31 4B31 4B31 4B31 4CC1 S-------  HLT           16205
8000 0200 0000 4B31 4B31 4B31 4B31 4CC1 S-------  HLT           16209
8000 0200 0000 4B31 4B31 4B31 4B31 4CC1 S-------  HLT           16213
8000 0200 0000 4B31 4B31 4B31 4B31 4CC1 S-------  HLT           16217
8000 0200 0000 4B31 4B31 4B31 4B31 4CC1 S-------  HLT           16221
8000 0200 0000 4B31 4B31 4B31 4B31 4CC1 S-------  HLT           16225
8000 0200 0000 4B31 4B31 4B31 4B31 4CC1 S-------  HLT           16229
8000 0200 0000 4B31 4B31 4B31 4B31 4CC1 S-------  HLT           16233
8000 0200 0000 4B31 4B31 4B31 4B31 4CC1 S-------  HLT           16237
8000 0200 0000 4B31 4B31 4B31 4B31 4CC1 S-------  HLT           16241
8000 0200 0000 4B31 4B31 4B31 4B31 4CC1 S-------  HLT           16245
8000 0200 0000 4B31 4B31 4B31 4B31 4CC1 S-------  HLT           16249
8000 0200 0000 4B31 4B31 4B31 4B31 4CC1 S-------  HLT           16253
8000 0200 0000 4B31 4B31 4B31 4B31 4CC1 S-------  HLT           16257
8000 0200 0000 4B31 4B31 4B31 4B31 4CC1 S-------  HLT           16261
8000 0200 0000 4B31 4B31 4B31 4B31 4CC1 S-------  HLT           16265
8000 0200 0000 4B31 4B31 4B31 4B31 4CC1 S-------  HLT           16269
8000 0200 0000 4B31 4B31 4B31 4B31 4CC1 S-------  HLT           16273
8000 0200 0000 4B31 4B31 4B31 4B31 4CC1 S-------  HLT           16277
8000 0200 0000 4B31 4B31 4B31 4B31 4CC1 S-------  HLT           16281
8000 0200 0000 4B31 4B31 4B31 4B31 4CC1 S-------  HLT           16285
8000 0200 0000 4B31 4B31 4B31 4B31 4CC1 S-------  HLT           16289
8000 0200 0000 4B31 4B31 4B31 4B31 4CC1 S-------  HLT           16293
8000 0200 0000 4B31 4B31 4B31 4B31 4CC1 S-------  HLT           16297
8000 0200 0000 4B31 4B31 4B31 4B31 4CC1 S-------  HLT           16301
8000 0200 0000 4B31 4B31 4B31 4B31 4CC1 S-------  HLT           16305
8000 0200 0000 4B31 4B31 4B31 4B31 4CC1 S-------  HLT           16309
8000 0200 0000 4B31 4B31 4B31 4B31 4CC1 S-------  HLT           16313
8000 0200 0000 4B31 4B31 4B31 4B31 4CC1 S-------  HLT           16317
8000 0200 0000 4B31 4B31 4B31 4B31 4CC1 S-------  HLT           16321
8000 0200 0000 4B31 4B31 4B31 4B31 4CC1 S-------  HLT           16325
8000 0200 0000 4B31 4B31 4B31 4B31 4CC1 S-------  HLT           16329
8000 0200 0000 4B31 4B31 4B31 4B31 4CC1 S-------  HLT           16333
8000 0200 0000 4B31 4B31 4B31 4B31 4CC1 S-------  HLT           16337
8000 0200 0000 4B31 4B31 4B31 4B31 4CC1 S-------  HLT           16341
8000 0200 0000 4B31 4B31 4B31 4B31 4CC1 S-------  HLT           16345
8000 0200 0000 4B31 4B31 4B31 4B31 4CC1 S-------  HLT           16349
8000 0200 0000 4B31 4B31 4B31 4B31 4CC1 S-------  HLT           16353
8000 0200 0000 4B31 4B31 4B31 4B31 4CC1 S-------  HLT           16357
8000 0200 0000 4B31 4B31 4B31 4B31 4CC1 S-------  HLT           16361
8000 0200 0000 4B31 4B31 4B31 4B31 4CC1 S-------  HLT           16365
8000 0200 0000 4B31 4B31 4B31 4B31 4CC1 S-------  HLT           16369
8000 0200 0000 4B31 4B31 4B31 4B31 4CC1 S-------  HLT           16373
8000 0200 0000 4B31 4B31 4B31 4B31 4CC1 S-------  HLT           16377
8000 0200 0000 4B31 4B31 4B31 4B31 4CC1 S-------  HLT           16381
8000 0200 0000 4B31 4B31 4B31 4B31 4CC1 S-------  HLT           16385
8000 0200 0000 4B31 4B31 4B31 4B31 4CC1 S-------  HLT           16389
8000 0200 0000 4B31 4B31 4B31 4B31 4CC1 S-------  HLT           16393
8000 0200 0000 4B31 4B31 4B31 4B31 4CC1 S-------  HLT           16397
8000 0200 0000 4B31 4B31 4B31 4B31 4CC1 S-------  HLT           16401
8000 0200 0000 4B31 4B31 4B31 4B31 4CC1 S-------  HLT           16405
8000 0200 0000 4B31 4B31 4B31 4B31 4CC1 S-------  HLT           16409
8000 0200 0000 4B31 4B31 4B31 4B31 4CC1 S-------  HLT           16413
8000 0200 0000 4B31 4B31 4B31 4B31 4CC1 S-------  HLT           16417
8000 0200 0000 4B31 4B31 4B31 4B31 4CC1 S-------  HLT           16421
8000 0200 0000 4B31 4B31 4B31 4B31 4CC1 S-------  HLT           16425
8000 0200 0000 4B31 4B31 4B31 4B31 4CC1 S-------  HLT           16429
8000 0200 0000 4B31 4B31 4B31 4B31 4CC1 S-------  HLT           16433
8000 0200 0000 4B31 4B31 4B31 4B31 4CC1 S-------  HLT           16437
8000 0200 0000 4B31 4B31 4B31 4B31 4CC1 S-------  HLT           16441
8000 0200 0000 4B31 4B31 4B31 4B31 4CC1 S-------  HLT           16445
8000 0200 0000 4B31 4B31 4B31 4B31 4CC1 S-------  HLT           16449
8000 0200 0000 4B31 4B31 4B31 4B31 4CC1 S-------  HLT           16453
8000 0200 0000 4B31 4B31 4B31 4B31 4CC1 S-------  HLT           16457
8000 0200 0000 4B31 4B31 4B31 4B31 4CC1 S-------  HLT           16461
8000 0200 0000 4B31 4B31 4B31 4B31 4CC1 S-------  HLT           16465
8000 0200 0000 4B31 4B31 4B31 4B31 4CC1 S-------  HLT           16469
8000 0200 0000 4B31 4B31 4B31 4B31 4CC1 S-------  HLT           16473
8000 0200 0000 4B31 4B31 4B31 4B31 4CC1 S-------  HLT           16477
8000 0200 0000 4B31 4B31 4B31 4B31 4CC1 S-------  HLT           16481
8000 0200 0000 4B31 4B31 4B31 4B31 4CC1 S-------  HLT           16485
8000 0200 0000 4B31 4B31 4B31 4B31 4CC1 S-------  HLT           16489
8000 0200 0000 4B31 4B31 4B31 4B31 4CC1 S-------  HLT           16493
8000 0200 0000 4B31 4B31 4B31 4B31 4CC1 S-------  HLT           16497
8000 0200 0000 4B31 4B31 4B31 4B31 4CC1 S-------  HLT           16501
8000 0200 0000 4B31 4B31 4B31 4B31 4CC1 S-------  HLT           16505
8000 0200 0000 4B31 4B31 4B31 4B31 4CC1 S-------  HLT           16509
8000 0200 0000 4B31 4B31 4B31 4B31 4CC1 S-------  HLT           16513
8000 0200 0000 4B31 4B31 4B31 4B31 4CC1 S-------  HLT           16517
8000 0200 0000 4B31 4B31 4B31 4B31 4CC1 S-------  HLT           16521
8000 0200 0000 4B31 4B31 4B31 4B31 4CC1 S-------  HLT           16525
8000 0200 0000 4B31 4B31 4B31 4B31 4CC1 S-------  HLT           16529
8000 0200 0000 4B31 4B31 4B31 4B31 4CC1 S-------  HLT           16533
8000 0200 0000 4B31 4B31 4B31 4B31 4CC1 S-------  HLT           16537
8000 0200 0000 4B31 4B31 4B31 4B31 4CC1 S-------  HLT           16541
8000 0200 0000 4B31 4B31 4B31 4B31 4CC1 S-------  HLT           16545
8000 0200 0000 4B31 4B31 4B31 4B31 4CC1 S-------  HLT           16549
8000 0200 0000 4B31 4B31 4B31 4B31 4CC1 S-------  HLT           16553
8000 0200 0000 4B31 4B31 4B31 4B31 4CC1 S-------  HLT           16557
8000 0200 0000 4B31 4B31 4B31 4B31 4CC1 S-------  HLT           16561
8000 0200 0000 4B31 4B31 4B31 4B31 4CC1 S-------  HLT           16565
8000 0200 0000 4B31 4B31 4B31 4B31 4CC1 S-------  HLT           16569
8000 0200 0000 4B31 4B31 4B31 4B31 4CC1 S-------  HLT           16573
8000 0200 0000 4B31 4B31 4B31 4B31 4CC1 S-------  HLT           16577
8000 0200 0000 4B31 4B31 4B31 4B31 4CC1 S-------  HLT           16581
8000 0200 0000 4B31 4B31 4B31 4B31 4CC1 S-------  HLT           16585
8000 0200 0000 4B31 4B31 4B31 4B31 4CC1 S-------  HLT           16589
8000 0200 0000 4B31 4B31 4B31 4B31 4CC1 S-------  HLT           16593
8000 0200 0000 4B31 4B31 4B31 4B31 4CC1 S-------  HLT           16597
8000 0200 0000 4B31 4B31 4B31 4B31 4CC1 S-------  HLT           16601
8000 0200 0000 4B31 4B31 4B31 4B31 4CC1 S-------  HLT           16605
8000 0200 0000 4B31 4B31 4B31 4B31 4CC1 S-------  HLT           16609
8000 0200 0000 4B31 4B31 4B31 4B31 4CC1 S-------  HLT           16613
8000 0200 0000 4B31 4B31 4B31 4B31 4CC1 S-------  HLT           16617
8000 0200 0000 4B31 4B31 4B31 4B31 4CC1 S-------  HLT           16621
8000 0200 0000 4B31 4B31 4B31 4B31 4CC1 S-------  HLT           16625
8000 0200 0000 4B31 4B31 4B31 4B31 4CC1 S-------  HLT           16629
8000 0200 0000 4B31 4B31 4B31 4B31 4CC1 S-------  HLT           16633
8000 0200 0000 4B31 4B31 4B31 4B31 4CC1 S-------  HLT           16637
8000 0200 0000 4B31 4B31 4B31 4B31 4CC1 S-------  HLT           16641
8000 0200 0000 4B31 4B31 4B31 4B31 4CC1 S-------  HLT           16645
8000 0200 0000 4B31 4B31 4B31 4B31 4CC1 S-------  HLT           16649
8000 0200 0000 4B31 4B31 4B31 4B31 4CC1 S-------  HLT           16653
8000 0200 0000 4B31 4B31 4B31 4B31 4CC1 S-------  HLT           16657
8000 0200 0000 4B31 4B31 4B31 4B31 4CC1 S-------  HLT           16661
8000 0200 0000 4B31 4B31 4B31 4B31 4CC1 S-------  HLT           16665
8000 0200 0000 4B31 4B31 4B31 4B31 4CC1 S-------  HLT           16669
8000 0200 0000 4B31 4B31 4B31 4B31 4CC1 S-------  HLT           16673
8000 0200 0000 4B31 4B31 4B31 4B31 4CC1 S-------  HLT           16677
8000 0200 0000 4B31 4B31 4B31 4B31 4CC1 S-------  HLT           16681
8000 0200 0000 4B31 4B31 4B31 4B31 4CC1 S-------  HLT           16685
8000 0200 0000 4B31 4B31 4B31 4B31 4CC1 S-------  HLT           16689
8000 0200 0000 4B31 4B31 4B31 4B31 4CC1 S-------  HLT           16693
8000 0200 0000 4B31 4B31 4B31 4B31 4CC1 S-------  HLT           16697
8000 0200 0000 4B31 4B31 4B31 4B31 4CC1 S-------  HLT           16701
8000 0200 0000 4B31 4B31 4B31 4B31 4CC1 S-------  HLT           16705
8000 0200 0000 4B31 4B31 4B31 4B31 4CC1 S-------  HLT           16709
8000 0200 0000 4B31 4B31 4B31 4B31 4CC1 S-------  HLT           16713
8000 0200 0000 4B31 4B31 4B31 4B31 4CC1 S-------  HLT           16717
8000 0200 0000 4B31 4B31 4B31 4B31 4CC1 S-------  HLT           16721
8000 0200 0000 4B31 4B31 4B31 4B31 4CC1 S-------  HLT           16725
8000 0200 0000 4B31 4B31 4B31 4B31 4CC1 S-------  HLT           16729
8000 0200 0000 4B31 4B31 4B31 4B31 4CC1 S-------  HLT           16733
8000 0200 0000 4B31 4B31 4B31 4B31 4CC1 S-------  HLT           16737
8000 0200 0000 4B31 4B31 4B31 4B31 4CC1 S-------  HLT           16741
8000 0200 0000 4B31 4B31 4B31 4B31 4CC1 S-------  HLT           16745
8000 0200 0000 4B31 4B31 4B31 4B31 4CC1 S-------  HLT           16749
8000 0200 0000 4B31 4B31 4B31 4B31 4CC1 S-------  HLT           16753
8000 0200 0000 4B31 4B31 4B31 4B31 4CC1 S-------  HLT           16757
8000 0200 0000 4B31 4B31 4B31 4B31 4CC1 S-------  HLT           16761
8000 0200 0000 4B31 4B31 4B31 4B31 4CC1 S-------  HLT           16765
8000 0200 0000 4B31 4B31 4B31 4B31 4CC1 S-------  HLT           16769
8000 0200 0000 4B31 4B31 4B31 4B31 4CC1 S-------  HLT           16773
8000 0200 0000 4B31 4B31 4B31 4B31 4CC1 S-------  HLT           16777
8000 0200 0000 4B31 4B31 4B31 4B31 4CC1 S-------  HLT           16781
8000 0200 0000 4B31 4B31 4B31 4B31 4CC1 S-------  HLT           16785
8000 0200 0000 4B31 4B31 4B31 4B31 4CC1 S-------  HLT           16789
8000 0200 0000 4B31 4B31 4B31 4B31 4CC1 S-------  HLT           16793
8000 0200 0000 4B31 4B31 4B31 4B31 4CC1 S-------  HLT           16797
8000 0200 0000 4B31 4B31 4B31 4B31 4CC1 S-------  HLT           16801
8000 0200 0000 4B31 4B31 4B31 4B31 4CC1 S-------  HLT           16805
8000 0200 0000 4B31 4B31 4B31 4B31 4CC1 S-------  HLT           16809
8000 0200 0000 4B31 4B31 4B31 4B31 4CC1 S-------  HLT           16813
8000 0200 0000 4B31 4B31 4B31 4B31 4CC1 S-------  HLT           16817
8000 0200 0000 4B31 4B31 4B31 4B31 4CC1 S-------  HLT           16821
8000 0200 0000 4B31 4B31 4B31 4B31 4CC1 S-------  HLT           16825
8000 0200 0000 4B31 4B31 4B31 4B31 4CC1 S-------  HLT           16829
8000 0200 0000 4B31 4B31 4B31 4B31 4CC1 S-------  HLT           16833
8000 0200 0000 4B31 4B31 4B31 4B31 4CC1 S-------  HLT           16837
8000 0200 0000 4B31 4B31 4B31 4B31 4CC1 S-------  HLT           16841
8000 0200 0000 4B31 4B31 4B31 4B31 4CC1 S-------  HLT           16845
8000 0200 0000 4B31 4B31 4B31 4B31 4CC1 S-------  HLT           16849
8000 0200 0000 4B31 4B31 4B31 4B31 4CC1 S-------  HLT           16853
8000 0200 0000 4B31 4B31 4B31 4B31 4CC1 S-------  HLT           16857
8000 0200 0000 4B31 4B31 4B31 4B31 4CC1 S-------  HLT           16861
8000 0200 0000 4B31 4B31 4B31 4B31 4CC1 S-------  HLT           16865
8000 0200 0000 4B31 4B31 4B31 4B31 4CC1 S-------  HLT           16869
8000 0200 0000 4B31 4B31 4B31 4B31 4CC1 S-------  HLT           16873
8000 0200 0000 4B31 4B31 4B31 4B31 4CC1 S-------  HLT           16877
8000 0200 0000 4B31 4B31 4B31 4B31 4CC1 S-------  HLT           16881
8000 0200 0000 4B31 4B31 4B31 4B31 4CC1 S-------  HLT           16885
8000 0200 0000 4B31 4B31 4B31 4B31 4CC1 S-------  HLT           16889
8000 0200 0000 4B31 4B31 4B31 4B31 4CC1 S-------  HLT           16893
8000 0200 0000 4B31 4B31 4B31 4B31 4CC1 S-------  HLT           16897
8000 0200 0000 4B31 4B31 4B31 4B31 4CC1 S-------  HLT           16901
8000 0200 0000 4B31 4B31 4B31 4B31 4CC1 S-------  HLT           16905
8000 0200 0000 4B31 4B31 4B31 4B31 4CC1 S-------  HLT           16909
8000 0200 0000 4B31 4B31 4B31 4B31 4CC1 S-------  HLT           16913
8000 0200 0000 4B31 4B31 4B31 4B31 4CC1 S-------  HLT           16917
8000 0200 0000 4B31 4B31 4B31 4B31 4CC1 S-------  HLT           16921
8000 0200 0000 4B31 4B31 4B31 4B31 4CC1 S-------  HLT           16925
8000 0200 0000 4B31 4B31 4B31 4B31 4CC1 S-------  HLT           16929
8000 0200 0000 4B31 4B31 4B31 4B31 4CC1 S-------  HLT           16933
8000 0200 0000 4B31 4B31 4B31 4B31 4CC1 S-------  HLT           16937
8000 0200 0000 4B31 4B31 4B31 4B31 4CC1 S-------  HLT           16941
8000 0200 0000 4B31 4B31 4B31 4B31 4CC1 S-------  HLT           16945
8000 0200 0000 4B31 4B31 4B31 4B31 4CC1 S-------  HLT           16949
8000 0200 0000 4B31 4B31 4B31 4B31 4CC1 S-------  HLT           16953
8000 0200 0000 4B31 4B31 4B31 4B31 4CC1 S-------  HLT           16957
8000 0200 0000 4B31 4B31 4B31 4B31 4CC1 S-------  HLT           16961
8000 0200 0000 4B31 4B31 4B31 4B31 4CC1 S-------  HLT           16965
8000 0200 0000 4B31 4B31 4B31 4B31 4CC1 S-------  HLT           16969
8000 0200 0000 4B31 4B31 4B31 4B31 4CC1 S-------  HLT           16973
8000 0200 0000 4B31 4B31 4B31 4B31 4CC1 S-------  HLT           16977
8000 0200 0000 4B31 4B31 4B31 4B31 4CC1 S-------  HLT           16981
8000 0200 0000 4B31 4B31 4B31 4B31 4CC1 S-------  HLT           16985
8000 0200 0000 4B31 4B31 4B31 4B31 4CC1 S-------  HLT           16989
8000 0200 0000 4B31 4B31 4B31 4B31 4CC1 S-------  HLT           16993
8000 0200 0000 4B31 4B31 4B31 4B31 4CC1 S-------  HLT           16997
8000 0200 0000 4B31 4B31 4B31 4B31 4CC1 S-------  HLT           17001
8000 0200 0000 4B31 4B31 4B31 4B31 4CC1 S-------  HLT           17005
8000 0200 0000 4B31 4B31 4B31 4B31 4CC1 S-------  HLT           17009
8000 0200 0000 4B31 4B31 4B31 4B31 4CC1 S-------  HLT           17013
8000 0200 0000 4B31 4B31 4B31 4B31 4CC1 S-------  HLT           17017
8000 0200 0000 4B31 4B31 4B31 4B31 4CC1 S-------  HLT           17021
8000 0200 0000 4B31 4B31 4B31 4B31 4CC1 S-------  HLT           17025
8000 0200 0000 4B31 4B31 4B31 4B31 4CC1 S-------  HLT           17029
8000 0200 0000 4B31 4B31 4B31 4B31 4CC1 S-------  HLT           17033
8000 0200 0000 4B31 4B31 4B31 4B31 4CC1 S-------  HLT           17037
8000 0200 0000 4B31 4B31 4B31 4B31 4CC1 S-------  HLT           17041
8000 0200 0000 4B31 4B31 4B31 4B31 4CC1 S-------  HLT           17045
8000 0200 0000 4B31 4B31 4B31 4B31 4CC1 S-------  HLT           17049
8000 0200 0000 4B31 4B31 4B31 4B31 4CC1 S-------  HLT           17053
8000 0200 0000 4B31 4B31 4B31 4B31 4CC1 S-------  HLT           17057
8000 0200 0000 4B31 4B31 4B31 4B31 4CC1 S-------  HLT           17061
8000 0200 0000 4B31 4B31 4B31 4B31 4CC1 S-------  HLT           17065
8000 0200 0000 4B31 4B31 4B31 4B31 4CC1 S-------  HLT           17069
8000 0200 0000 4B31 4B31 4B31 4B31 4CC1 S-------  HLT           17073
8000 0200 0000 4B31 4B31 4B31 4B31 4CC1 S-------  HLT           17077
8000 0200 0000 4B31 4B31 4B31 4B31 4CC1 S-------  HLT           17081
8000 0200 0000 4B31 4B31 4B31 4B31 4CC1 S-------  HLT           17085
8000 0200 0000 4B31 4B31 4B31 4B31 4CC1 S-------  HLT           17089
8000 0200 0000 4B31 4B31 4B31 4B31 4CC1 S-------  HLT           17093
8000 0200 0000 4B31 4B31 4B31 4B31 4CC1 S-------  HLT           17097
8000 0200 0000 4B31 4B31 4B31 4B31 4CC1 S-------  HLT           17101
8000 0200 0000 4B31 4B31 4B31 4B31 4CC1 S-------  HLT           17105
8000 0200 0000 4B31 4B31 4B31 4B31 4CC1 S-------  HLT           17109
8000 0200 0000 4B31 4B31 4B31 4B31 4CC1 S-------  HLT           17113
8000 0200 0000 4B31 4B31 4B31 4B31 4CC1 S-------  HLT           17117
8000 0200 0000 4B31 4B31 4B31 4B31 4CC1 S-------  HLT           17121
8000 0200 0000 4B31 4B31 4B31 4B31 4CC1 S-------  HLT           17125
8000 0200 0000 4B31 4B31 4B31 4B31 4CC1 S-------  HLT           17129
8000 0200 0000 4B31 4B31 4B31 4B31 4CC1 S-------  HLT           17133
8000 0200 0000 4B31 4B31 4B31 4B31 4CC1 S-------  HLT           17137
8000 0200 0000 4B31 4B31 4B31 4B31 4CC1 S-------  HLT           17141
8000 0200 0000 4B31 4B31 4B31 4B31 4CC1 S-------  HLT           17145
8000 0200 0000 4B31 4B31 4B31 4B31 4CC1 S-------  HLT           17149
8000 0200 0000 4B31 4B31 4B31 4B31 4CC1 S-------  HLT           17153
8000 0200 0000 4B31 4B31 4B31 4B31 4CC1 S-------  HLT           17157
8000 0200 0000 4B31 4B31 4B31 4B31 4CC1 S-------  HLT           17161
8000 0200 0000 4B31 4B31 4B31 4B31 4CC1 S-------  HLT           17165
8000 0200 0000 4B31 4B31 4B31 4B31 4CC1 S-------  HLT           17169
8000 0200 0000 4B31 4B31 4B31 4B31 4CC1 S-------  HLT           17173
8000 0200 0000 4B31 4B31 4B31 4B31 4CC1 S-------  HLT           17177
8000 0200 0000 4B31 4B31 4B31 4B31 4CC1 S-------  HLT           17181
8000 0200 0000 4B31 4B31 4B31 4B31 4CC1 S-------  HLT           17185
8000 0200 0000 4B31 4B31 4B31 4B31 4CC1 S-------  HLT           17189
8000 0200 0000 4B31 4B31 4B31 4B31 4CC1 S-------  HLT           17193
8000 0200 0000 4B31 4B31 4B31 4B31 4CC1 S-------  HLT           17197
8000 0200 0000 4B31 4B31 4B31 4B31 4CC1 S-------  HLT           17201
8000 0200 0000 4B31 4B31 4B31 4B31 4CC1 S-------  HLT           17205
8000 0200 0000 4B31 4B31 4B31 4B31 4CC1 S-------  HLT           17209
8000 0200 0000 4B31 4B31 4B31 4B31 4CC1 S-------  HLT           17213
8000 0200 0000 4B31 4B31 4B31 4B31 4CC1 S-------  HLT           17217
8000 0200 0000 4B31 4B31 4B31 4B31 4CC1 S-------  HLT           17221
8000 0200 0000 4B31 4B31 4B31 4B31 4CC1 S-------  HLT           17225
8000 0200 0000 4B31 4B31 4B31 4B31 4CC1 S-------  HLT           17229
8000 0200 0000 4B31 4B31 4B31 4B31 4CC1 S-------  HLT           17233
8000 0200 0000 4B31 4B31 4B31 4B31 4CC1 S-------  HLT           17237
8000 0200 0000 4B31 4B31 4B31 4B31 4CC1 S-------  HLT           17241
8000 0200 0000 4B31 4B31 4B31 4B31 4CC1 S-------  HLT           17245
8000 0200 0000 4B31 4B31 4B31 4B31 4CC1 S-------  HLT           17249
8000 0200 0000 4B31 4B31 4B31 4B31 4CC1 S-------  HLT           17253
8000 0200 0000 4B31 4B31 4B31 4B31 4CC1 S-------  HLT           17257
8000 0200 0000 4B31 4B31 4B31 4B31 4CC1 S-------  HLT           17261
8000 0200 0000 4B31 4B31 4B31 4B31 4CC1 S-------  HLT           17265
8000 0200 0000 4B31 4B31 4B31 4B31 4CC1 S-------  HLT           17269
8000 0200 0000 4B31 4B31 4B31 4B31 4CC1 S-------  HLT           17273
8000 0200 0000 4B31 4B31 4B31 4B31 4CC1 S-------  HLT           17277
8000 0200 0000 4B31 4B31 4B31 4B31 4CC1 S-------  HLT           17281
8000 0200 0000 4B31 4B31 4B31 4B31 4CC1 S-------  HLT           17285
8000 0200 0000 4B31 4B31 4B31 4B31 4CC1 S-------  HLT           17289
8000 0200 0000 4B31 4B31 4B31 4B31 4CC1 S-------  HLT           17293
8000 0200 0000 4B31 4B31 4B31 4B31 4CC1 S-------  HLT           17297
8000 0200 0000 4B31 4B31 4B31 4B31 4CC1 S-------  HLT           17301
8000 0200 0000 4B31 4B31 4B31 4B31 4CC1 S-------  HLT           17305
8000 0200 0000 4B31 4B31 4B31 4B31 4CC1 S-------  HLT           17309
8000 0200 0000 4B31 4B31 4B31 4B31 4CC1 S-------  HLT           17313
8000 0200 0000 4B31 4B31 4B31 4B31 4CC1 S-------  HLT           17317
8000 0200 0000 4B31 4B31 4B31 4B31 4CC1 S-------  HLT           17321
8000 0200 0000 4B31 4B31 4B31 4B31 4CC1 S-------  HLT           17325
8000 0200 0000 4B31 4B31 4B31 4B31 4CC1 S-------  HLT           17329
8000 0200 0000 4B31 4B31 4B31 4B31 4CC1 S-------  HLT           17333
8000 0200 0000 4B31 4B31 4B31 4B31 4CC1 S-------  HLT           17337
8000 0200 0000 4B31 4B31 4B31 4B31 4CC1 S-------  HLT           17341
8000 0200 0000 4B31 4B31 4B31 4B31 4CC1 S-------  HLT           17345
8000 0200 0000 4B31 4B31 4B31 4B31 4CC1 S-------  HLT           17349
8000 0200 0000 4B31 4B31 4B31 4B31 4CC1 S-------  HLT           17353
8000 0200 0000 4B31 4B31 4B31 4B31 4CC1 S-------  HLT           17357
8000 0200 0000 4B31 4B31 4B31 4B31 4CC1 S-------  HLT           17361
8000 0200 0000 4B31 4B31 4B31 4B31 4CC1 S-------  HLT           17365
8000 0200 0000 4B31 4B31 4B31 4B31 4CC1 S-------  HLT           17369
8000 0200 0000 4B31 4B31 4B31 4B31 4CC1 S-------  HLT           17373
8000 0200 0000 4B31 4B31 4B31 4B31 4CC1 S-------  HLT           17377
8000 0200 0000 4B31 4B31 4B31 4B31 4CC1 S-------  HLT           17381
8000 0200 0000 4B31 4B31 4B31 4B31 4CC1 S-------  HLT           17385
8000 0200 0000 4B31 4B31 4B31 4B31 4CC1 S-------  HLT           17389
8000 0200 0000 4B31 4B31 4B31 4B31 4CC1 S-------  HLT           17393
8000 0200 0000 4B31 4B31 4B31 4B31 4CC1 S-------  HLT           17397
8000 0200 0000 4B31 4B31 4B31 4B31 4CC1 S-------  HLT           17401
8000 0200 0000 4B31 4B31 4B31 4B31 4CC1 S-------  HLT           17405
8000 0200 0000 4B31 4B31 4B31 4B31 4CC1 S-------  HLT           17409
8000 0200 0000 4B31 4B31 4B31 4B31 4CC1 S-------  HLT           17413
8000 0200 0000 4B31 4B31 4B31 4B31 4CC1 S-------  HLT           17417
8000 0200 0000 4B31 4B31 4B31 4B31 4CC1 S-------  HLT           17421
8000 0200 0000 4B31 4B31 4B31 4B31 4CC1 S-------  HLT           17425
8000 0200 0000 4B31 4B31 4B31 4B31 4CC1 S-------  HLT           17429
8000 0200 0000 4B31 4B31 4B31 4B31 4CC1 S-------  HLT           17433
8000 0200 0000 4B31 4B31 4B31 4B31 4CC1 S-------  HLT           17437
8000 0200 0000 4B31 4B31 4B31 4B31 4CC1 S-------  HLT           17441
8000 0200 0000 4B31 4B31 4B31 4B31 4CC1 S-------  HLT           17445
8000 0200 0000 4B31 4B31 4B31 4B31 4CC1 S-------  HLT           17449
8000 0200 0000 4B31 4B31 4B31 4B31 4CC1 S-------  HLT           17453
8000 0200 0000 4B31 4B31 4B31 4B31 4CC1 S-------  HLT           17457
8000 0200 0000 4B31 4B31 4B31 4B31 4CC1 S-------  HLT           17461
8000 0200 0000 4B31 4B31 4B31 4B31 4CC1 S-------  HLT           17465
8000 0200 0000 4B31 4B31 4B31 4B31 4CC1 S-------  HLT           17469
8000 0200 0000 4B31 4B31 4B31 4B31 4CC1 S-------  HLT           17473
8000 0200 0000 4B31 4B31 4B31 4B31 4CC1 S-------  HLT           17477
8000 0200 0000 4B31 4B31 4B31 4B31 4CC1 S-------  HLT           17481
8000 0200 0000 4B31 4B31 4B31 4B31 4CC1 S-------  HLT           17485
8000 0200 0000 4B31 4B31 4B31 4B31 4CC1 S-------  HLT           17489
8000 0200 0000 4B31 4B31 4B31 4B31 4CC1 S-------  HLT           17493
8000 0200 0000 4B31 4B31 4B31 4B31 4CC1 S-------  HLT           17497
8000 0200 0000 4B31 4B31 4B31 4B31 4CC1 S-------  HLT           17501
8000 0200 0000 4B31 4B31 4B31 4B31 4CC1 S-------  HLT           17505
8000 0200 0000 4B31 4B31 4B31 4B31 4CC1 S-------  HLT           17509
8000 0200 0000 4B31 4B31 4B31 4B31 4CC1 S-------  HLT           17513
8000 0200 0000 4B31 4B31 4B31 4B31 4CC1 S-------  HLT           17517
8000 0200 0000 4B31 4B31 4B31 4B31 4CC1 S-------  HLT           17521
8000 0200 0000 4B31 4B31 4B31 4B31 4CC1 S-------  HLT           17525
8000 0200 0000 4B31 4B31 4B31 4B31 4CC1 S-------  HLT           17529
8000 0200 0000 4B31 4B31 4B31 4B31 4CC1 S-------  HLT           17533
8000 0200 0000 4B31 4B31 4B31 4B31 4CC1 S-------  HLT           17537
8000 0200 0000 4B31 4B31 4B31 4B31 4CC1 S-------  HLT           17541
8000 0200 0000 4B31 4B31 4B31 4B31 4CC1 S-------  HLT           17545
8000 0200 0000 4B31 4B31 4B31 4B31 4CC1 S-------  HLT           17549
8000 0200 0000 4B31 4B31 4B31 4B31 4CC1 S-------  HLT           17553
8000 0200 0000 4B31 4B31 4B31 4B31 4CC1 S-------  HLT           17557
8000 0200 0000 4B31 4B31 4B31 4B31 4CC1 S-------  HLT           17561
8000 0200 0000 4B31 4B31 4B31 4B31 4CC1 S-------  HLT           17565
8000 0200 0000 4B31 4B31 4B31 4B31 4CC1 S-------  HLT           17569
8000 0200 0000 4B31 4B31 4B31 4B31 4CC1 S-------  HLT           17573
8000 0200 0000 4B31 4B31 4B31 4B31 4CC1 S-------  HLT           17577
8000 0200 0000 4B31 4B31 4B31 4B31 4CC1 S-------  HLT           17581
8000 0200 0000 4B31 4B31 4B31 4B31 4CC1 S-------  HLT           17585
8000 0200 0000 4B31 4B31 4B31 4B31 4CC1 S-------  HLT           17589
8000 0200 0000 4B31 4B31 4B31 4B31 4CC1 S-------  HLT           17593
8000 0200 0000 4B31 4B31 4B31 4B31 4CC1 S-------  HLT           17597
8000 0200 0000 4B31 4B31 4B31 4B31 4CC1 S-------  HLT           17601
8000 0200 0000 4B31 4B31 4B31 4B31 4CC1 S-------  HLT           17605
8000 0200 0000 4B31 4B31 4B31 4B31 4CC1 S-------  HLT           17609
8000 0200 0000 4B31 4B31 4B31 4B31 4CC1 S-------  HLT           17613
8000 0200 0000 4B31 4B31 4B31 4B31 4CC1 S-------  HLT           17617
8000 0200 0000 4B31 4B31 4B31 4B31 4CC1 S-------  HLT           17621
8000 0200 0000 4B31 4B31 4B31 4B31 4CC1 S-------  HLT           17625
8000 0200 0000 4B31 4B31 4B31 4B31 4CC1 S-------  HLT           17629
8000 0200 0000 4B31 4B31 4B31 4B31 4CC1 S-------  HLT           17633
8000 0200 0000 4B31 4B31 4B31 4B31 4CC1 S-------  HLT           17637
8000 0200 0000 4B31 4B31 4B31 4B31 4CC1 S-------  HLT           17641
8000 0200 0000 4B31 4B31 4B31 4B31 4CC1 S-------  HLT           17645
8000 0200 0000 4B31 4B31 4B31 4B31 4CC1 S-------  HLT           17649
8000 0200 0000 4B31 4B31 4B31 4B31 4CC1 S-------  HLT           17653
8000 0200 0000 4B31 4B31 4B31 4B31 4CC1 S-------  HLT           17657
8000 0200 0000 4B31 4B31 4B31 4B31 4CC1 S-------  HLT           17661
8000 0200 0000 4B31 4B31 4B31 4B31 4CC1 S-------  HLT           17665
8000 0200 0000 4B31 4B31 4B31 4B31 4CC1 S-------  HLT           17669
8000 0200 0000 4B31 4B31 4B31 4B31 4CC1 S-------  HLT           17673
8000 0200 0000 4B31 4B31 4B31 4B31 4CC1 S-------  HLT           17677
8000 0200 0000 4B31 4B31 4B31 4B31 4CC1 S-------  HLT           17681
8000 0200 0000 4B31 4B31 4B31 4B31 4CC1 S-------  HLT           17685
8000 0200 0000 4B31 4B31 4B31 4B31 4CC1 S-------  HLT           17689
8000 0200 0000 4B31 4B31 4B31 4B31 4CC1 S-------  HLT           17693
8000 0200 0000 4B31 4B31 4B31 4B31 4CC1 S-------  HLT           17697
8000 0200 0000 4B31 4B31 4B31 4B31 4CC1 S-------  HLT           17701
8000 0200 0000 4B31 4B31 4B31 4B31 4CC1 S-------  HLT           17705
8000 0200 0000 4B31 4B31 4B31 4B31 4CC1 S-------  HLT           17709
8000 0200 0000 4B31 4B31 4B31 4B31 4CC1 S-------  HLT           17713
8000 0200 0000 4B31 4B31 4B31 4B31 4CC1 S-------  HLT           17717
8000 0200 0000 4B31 4B31 4B31 4B31 4CC1 S------q  HLT           17721
8000 0200 0000 4B31 4B31 4B31 4B31 4CC1 S------q  HLT           17725
8000 0200 0000 4B31 4B31 4B31 4B31 4CC1 S------q  HLT           17729
8000 0200 0000 4B31 4B31 4B31 4B31 4CC1 S------q  HLT           17733
8000 0200 0000 4B31 4B31 4B31 4B31 4CC1 S------q  HLT           17737
8000 0200 0000 4B31 4B31 4B31 4B31 4CC1 S------q  HLT           17741
8000 0200 0000 4B31 4B31 4B31 4B31 4CC1 S------q  HLT           17745
8000 0200 0000 4B31 4B31 4B31 4B31 4CC1 S------q  HLT           17749
8000 0200 0000 4B31 4B31 4B31 4B31 4CC1 S------q  HLT           17753
8000 0200 0000 4B31 4B31 4B31 4B31 4CC1 S------q  HLT           17757
8000 0200 0000 4B31 4B31 4B31 4B31 4CC1 S------q  HLT           17761
8000 0200 0000 4B31 4B31 4B31 4B31 4CC1 S------q  HLT           17765
8000 0200 0000 4B31 4B31 4B31 4B31 4CC1 S------q  HLT           17769
8000 0200 0000 4B31 4B31 4B31 4B31 4CC1 S------q  HLT           17773
8000 0200 0000 4B31 4B31 4B31 4B31 4CC1 S------q  HLT           17777
8000 0200 0000 4B31 4B31 4B31 4B31 4CC1 S------q  HLT           17781
8000 0200 0000 4B31 4B31 4B31 4B31 4CC1 S------q  HLT           17785
8000 0200 0000 4B31 4B31 4B31 4B31 4CC1 S------q  HLT           17789
8000 0200 0000 4B31 4B31 4B31 4B31 4CC1 S------q  HLT           17793
8000 0200 0000 4B31 4B31 4B31 4B31 4CC1 S------q  HLT           17797
8000 0200 0000 4B31 4B31 4B31 4B31 4CC1 S------q  HLT           17801
8000 0200 0000 4B31 4B31 4B31 4B31 4CC1 S------q  HLT           17805
8000 0200 0000 4B31 4B31 4B31 4B31 4CC1 S------q  HLT           17809
8000 0200 0000 4B31 4B31 4B31 4B31 4CC1 S------q  HLT           17813
8000 0200 0000 4B31 4B31 4B31 4B31 4CC1 S------q  HLT           17817
8000 0200 0000 4B31 4B31 4B31 4B31 4CC1 S------q  HLT           17821
8000 0200 0000 4B31 4B31 4B31 4B31 4CC1 S------q  HLT           17825
8000 0200 0000 4B31 4B31 4B31 4B31 4CC1 S------q  HLT           17829
8000 0200 0000 4B31 4B31 4B31 4B31 4CC1 S------q  HLT           17833
8000 0200 0000 4B31 4B31 4B31 4B31 4CC1 S------q  HLT           17837
8000 0200 0000 4B31 4B31 4B31 4B31 4CC1 S------q  HLT           17841
8000 0200 0000 4B31 4B31 4B31 4B31 4CC1 S------q  HLT           17845
8000 0200 0000 4B31 4B31 4B31 4B31 4CC1 S------q  HLT           17849
8000 0200 0000 4B31 4B31 4B31 4B31 4CC1 S------q  HLT           17853
8000 0200 0000 4B31 4B31 4B31 4B31 4CC1 S------q  HLT           17857
8000 0200 0000 4B31 4B31 4B31 4B31 4CC1 S------q  HLT           17861
8000 0200 0000 4B31 4B31 4B31 4B31 4CC1 S------q  HLT           17865
8000 0200 0000 4B31 4B31 4B31 4B31 4CC1 S------q  HLT           17869
8000 0200 0000 4B31 4B31 4B31 4B31 4CC1 S------q  HLT           17873
8000 0200 0000 4B31 4B31 4B31 4B31 4CC1 S------q  HLT           17877
8000 0200 0000 4B31 4B31 4B31 4B31 4CC1 S------q  HLT           17881
8000 0200 0000 4B31 4B31 4B31 4B31 4CC1 S------q  HLT           17885
8000 0200 0000 4B31 4B31 4B31 4B31 4CC1 S------q  HLT           17889
8000 0200 0000 4B31 4B31 4B31 4B31 4CC1 S------q  HLT           17893
8000 0200 0000 4B31 4B31 4B31 4B31 4CC1 S------q  HLT           17897
8000 0200 0000 4B31 4B31 4B31 4B31 4CC1 S------q  HLT           17901
8000 0200 0000 4B31 4B31 4B31 4B31 4CC1 S------q  HLT           17905
8000 0200 0000 4B31 4B31 4B31 4B31 4CC1 S------q  HLT           17909
8000 0200 0000 4B31 4B31 4B31 4B31 4CC1 S------q  HLT           17913
8000 0200 0000 4B31 4B31 4B31 4B31 4CC1 S------q  HLT           17917
8000 0200 0000 4B31 4B31 4B31 4B31 4CC1 S------q  HLT           17921
8000 0200 0000 4B31 4B31 4B31 4B31 4CC1 S------q  HLT           17925
8000 0200 0000 4B31 4B31 4B31 4B31 4CC1 S------q  HLT           17929
8000 0200 0000 4B31 4B31 4B31 4B31 4CC1 S------q  HLT           17933
8000 0200 0000 4B31 4B31 4B31 4B31 4CC1 S------q  HLT           17937
8000 0200 0000 4B31 4B31 4B31 4B31 4CC1 S------q  HLT           17941
8000 0200 0000 4B31 4B31 4B31 4B31 4CC1 S------q  HLT           17945
8000 0200 0000 4B31 4B31 4B31 4B31 4CC1 S------q  HLT           17949
8000 0200 0000 4B31 4B31 4B31 4B31 4CC1 S------q  HLT           17953
8000 0200 0000 4B31 4B31 4B31 4B31 4CC1 S------q  HLT           17957
8000 0200 0000 4B31 4B31 4B31 4B31 4CC1 S------q  HLT           17961
8000 0200 0000 4B31 4B31 4B31 4B31 4CC1 S------q  HLT           17965
8000 0200 0000 4B31 4B31 4B31 4B31 4CC1 S------q  HLT           17969
8000 0200 0000 4B31 4B31 4B31 4B31 4CC1 S------q  HLT           17973
8000 0200 0000 4B31 4B31 4B31 4B31 4CC1 S------q  HLT           17977
8000 0200 0000 4B31 4B31 4B31 4B31 4CC1 S------q  HLT           17981
8000 0200 0000 4B31 4B31 4B31 4B31 4CC1 S------q  HLT           17985
8000 0200 0000 4B31 4B31 4B31 4B31 4CC1 S------q  HLT           17989
8000 0200 0000 4B31 4B31 4B31 4B31 4CC1 S------q  HLT           17993
8000 0200 0000 4B31 4B31 4B31 4B31 4CC1 S------q  HLT           17997
8000 0200 0000 4B31 4B31 4B31 4B31 4CC1 S------q  HLT           18001
8000 0200 0000 4B31 4B31 4B31 4B31 4CC1 S------q  HLT           18005
8000 0200 0000 4B31 4B31 4B31 4B31 4CC1 S------q  HLT           18009
8000 0200 0000 4B31 4B31 4B31 4B31 4CC1 S------q  HLT           18013
8000 0200 0000 4B31 4B31 4B31 4B31 4CC1 S------q  HLT           18017
8000 0200 0000 4B31 4B31 4B31 4B31 4CC1 S------q  HLT           18021
8000 0200 0000 4B31 4B31 4B31 4B31 4CC1 S------q  HLT           18025
8000 0200 0000 4B31 4B31 4B31 4B31 4CC1 S------q  HLT           18029
8000 0200 0000 4B31 4B31 4B31 4B31 4CC1 S------q  HLT           18033
8000 0200 0000 4B31 4B31 4B31 4B31 4CC1 S------q  HLT           18037
8000 0200 0000 4B31 4B31 4B31 4B31 4CC1 S------q  HLT           18041
8000 0200 0000 4B31 4B31 4B31 4B31 4CC1 S------q  HLT           18045
8000 0200 0000 4B31 4B31 4B31 4B31 4CC1 S------q  HLT           18049
8000 0200 0000 4B31 4B31 4B31 4B31 4CC1 S------q  HLT           18053
8000 0200 0000 4B31 4B31 4B31 4B31 4CC1 S------q  HLT           18057
8000 0200 0000 4B31 4B31 4B31 4B31 4CC1 S------q  HLT           18061
8000 0200 0000 4B31 4B31 4B31 4B31 4CC1 S------q  HLT           18065
8000 0200 0000 4B31 4B31 4B31 4B31 4CC1 S------q  HLT           18069
8000 0200 0000 4B31 4B31 4B31 4B31 4CC1 S------q  HLT           18073
8000 0200 0000 4B31 4B31 4B31 4B31 4CC1 S------q  HLT           18077
8000 0200 0000 4B31 4B31 4B31 4B31 4CC1 S------q  HLT           18081
8000 0200 0000 4B31 4B31 4B31 4B31 4CC1 S------q  HLT           18085
8000 0200 0000 4B31 4B31 4B31 4B31 4CC1 S------q  HLT           18089
8000 0200 0000 4B31 4B31 4B31 4B31 4CC1 S------q  HLT           18093
8000 0200 0000 4B31 4B31 4B31 4B31 4CC1 S------q  HLT           18097
8000 0200 0000 4B31 4B31 4B31 4B31 4CC1 S------q  HLT           18101
8000 0200 0000 4B31 4B31 4B31 4B31 4CC1 S------q  HLT           18105
8000 0200 0000 4B31 4B31 4B31 4B31 4CC1 S------q  HLT           18109
8000 0200 0000 4B31 4B31 4B31 4B31 4CC1 S------q  HLT           18113
8000 0200 0000 4B31 4B31 4B31 4B31 4CC1 S------q  HLT           18117
8000 0200 0000 4B31 4B31 4B31 4B31 4CC1 S------q  HLT           18121
8000 0200 0000 4B31 4B31 4B31 4B31 4CC1 S------q  HLT           18125
8000 0200 0000 4B31 4B31 4B31 4B31 4CC1 S------q  HLT           18129
8000 0200 0000 4B31 4B31 4B31 4B31 4CC1 S------q  HLT           18133
8000 0200 0000 4B31 4B31 4B31 4B31 4CC1 S------q  HLT           18137
8000 0200 0000 4B31 4B31 4B31 4B31 4CC1 S------q  HLT           18141
8000 0200 0000 4B31 4B31 4B31 4B31 4CC1 S------q  HLT           18145
8000 0200 0000 4B31 4B31 4B31 4B31 4CC1 S------q  HLT           18149
8000 0200 0000 4B31 4B31 4B31 4B31 4CC1 S------q  HLT           18153
8000 0200 0000 4B31 4B31 4B31 4B31 4CC1 S------q  HLT           18157
8000 0200 0000 4B31 4B31 4B31 4B31 4CC1 S------q  HLT           18161
8000 0200 0000 4B31 4B31 4B31 4B31 4CC1 S------q  HLT           18165
8000 0200 0000 4B31 4B31 4B31 4B31 4CC1 S------q  HLT           18169
8000 0200 0000 4B31 4B31 4B31 4B31 4CC1 S------q  HLT           18173
8000 0200 0000 4B31 4B31 4B31 4B31 4CC1 S------q  HLT           18177
8000 0200 0000 4B31 4B31 4B31 4B31 4CC1 S------q  HLT           18181
8000 0200 0000 4B31 4B31 4B31 4B31 4CC1 S------q  HLT           18185
8000 0200 0000 4B31 4B31 4B31 4B31 4CC1 S------q  HLT           18189
8000 0200 0000 4B31 4B31 4B31 4B31 4CC1 S------q  HLT           18193
8000 0200 0000 4B31 4B31 4B31 4B31 4CC1 S------q  HLT           18197
8000 0200 0000 4B31 4B31 4B31 4B31 4CC1 S------q  HLT           18201
8000 0200 0000 4B31 4B31 4B31 4B31 4CC1 S------q  HLT           18205
8000 0200 0000 4B31 4B31 4B31 4B31 4CC1 S------q  HLT           18209
8000 0200 0000 4B31 4B31 4B31 4B31 4CC1 S------q  HLT           18213
8000 0200 0000 4B31 4B31 4B31 4B31 4CC1 S------q  HLT           18217
8000 0200 0000 4B31 4B31 4B31 4B31 4CC1 S------q  HLT           18221
8000 0200 0000 4B31 4B31 4B31 4B31 4CC1 S------q  HLT           18225
8000 0200 0000 4B31 4B31 4B31 4B31 4CC1 S------q  HLT           18229
8000 0200 0000 4B31 4B31 4B31 4B31 4CC1 S------q  HLT           18233
8000 0200 0000 4B31 4B31 4B31 4B31 4CC1 S------q  HLT           18237
8000 0200 0000 4B31 4B31 4B31 4B31 4CC1 S------q  HLT           18241
8000 0200 0000 4B31 4B31 4B31 4B31 4CC1 S------q  HLT           18245
8000 0200 0000 4B31 4B31 4B31 4B31 4CC1 S------q  HLT           18249
8000 0200 0000 4B31 4B31 4B31 4B31 4CC1 S------q  HLT           18253
8000 0200 0000 4B31 4B31 4B31 4B31 4CC1 S------q  HLT           18257
8000 0200 0000 4B31 4B31 4B31 4B31 4CC1 S------q  HLT           18261
8000 0200 0000 4B31 4B31 4B31 4B31 4CC1 S------q  HLT           18265
8000 0200 0000 4B31 4B31 4B31 4B31 4CC1 S------q  HLT           18269
8000 0200 0000 4B31 4B31 4B31 4B31 4CC1 S------q  HLT           18273
8000 0200 0000 4B31 4B31 4B31 4B31 4CC1 S------q  HLT           18277
8000 0200 0000 4B31 4B31 4B31 4B31 4CC1 S------q  HLT           18281
8000 0200 0000 4B31 4B31 4B31 4B31 4CC1 S------q  HLT           18285
8000 0200 0000 4B31 4B31 4B31 4B31 4CC1 S------q  HLT           18289
8000 0200 0000 4B31 4B31 4B31 4B31 4CC1 S------q  HLT           18293
8000 0200 0000 4B31 4B31 4B31 4B31 4CC1 S------q  HLT           18297
8000 0200 0000 4B31 4B31 4B31 4B31 4CC1 S------q  HLT           18301
8000 0200 0000 4B31 4B31 4B31 4B31 4CC1 S------q  HLT           18305
8000 0200 0000 4B31 4B31 4B31 4B31 4CC1 S------q  HLT           18309
8000 0200 0000 4B31 4B31 4B31 4B31 4CC1 S------q  HLT           18313
8000 0200 0000 4B31 4B31 4B31 4B31 4CC1 S------q  HLT           18317
8000 0200 0000 4B31 4B31 4B31 4B31 4CC1 S------q  HLT           18321
8000 0200 0000 4B31 4B31 4B31 4B31 4CC1 S------q  HLT           18325
8000 0200 0000 4B31 4B31 4B31 4B31 4CC1 S------q  HLT           18329
8000 0200 0000 4B31 4B31 4B31 4B31 4CC1 S------q  HLT           18333
8000 0200 0000 4B31 4B31 4B31 4B31 4CC1 S------q  HLT           18337
8000 0200 0000 4B31 4B31 4B31 4B31 4CC1 S------q  HLT           18341
8000 0200 0000 4B31 4B31 4B31 4B31 4CC1 S------q  HLT           18345
8000 0200 0000 4B31 4B31 4B31 4B31 4CC1 S------q  HLT           18349
8000 0200 0000 4B31 4B31 4B31 4B31 4CC1 S------q  HLT           18353
8000 0200 0000 4B31 4B31 4B31 4B31 4CC1 S------q  HLT           18357
8000 0200 0000 4B31 4B31 4B31 4B31 4CC1 S------q  HLT           18361
8000 0200 0000 4B31 4B31 4B31 4B31 4CC1 S------q  HLT           18365
8000 0200 0000 4B31 4B31 4B31 4B31 4CC1 S------q  HLT           18369
8000 0200 0000 4B31 4B31 4B31 4B31 4CC1 S------q  HLT           18373
8000 0200 0000 4B31 4B31 4B31 4B31 4CC1 S------q  HLT           18377
8000 0200 0000 4B31 4B31 4B31 4B31 4CC1 S------q  HLT           18381
8000 0200 0000 4B31 4B31 4B31 4B31 4CC1 S------q  HLT           18385
8000 0200 0000 4B31 4B31 4B31 4B31 4CC1 S------q  HLT           18389
8000 0200 0000 4B31 4B31 4B31 4B31 4CC1 S------q  HLT           18393
8000 0200 0000 4B31 4B31 4B31 4B31 4CC1 S------q  HLT           18397
8000 0200 0000 4B31 4B31 4B31 4B31 4CC1 S------q  HLT           18401
8000 0200 0000 4B31 4B31 4B31 4B31 4CC1 S------q  HLT           18405
8000 0200 0000 4B31 4B31 4B31 4B31 4CC1 S------q  HLT           18409
8000 0200 0000 4B31 4B31 4B31 4B31 4CC1 S------q  HLT           18413
8000 0200 0000 4B31 4B31 4B31 4B31 4CC1 S------q  HLT           18417
8000 0200 0000 4B31 4B31 4B31 4B31 4CC1 S------q  HLT           18421
8000 0200 0000 4B31 4B31 4B31 4B31 4CC1 S------q  HLT           18425
8000 0200 0000 4B31 4B31 4B31 4B31 4CC1 S------q  HLT           18429
8000 0200 0000 4B31 4B31 4B31 4B31 4CC1 S------q  HLT           18433
8000 0200 0000 4B31 4B31 4B31 4B31 4CC1 S------q  HLT           18437
8000 0200 0000 4B31 4B31 4B31 4B31 4CC1 S------q  HLT           18441
8000 0200 0000 4B31 4B31 4B31 4B31 4CC1 S------q  HLT           18445
8000 0200 0000 4B31 4B31 4B31 4B31 4CC1 S------q  HLT           18449
8000 0200 0000 4B31 4B31 4B31 4B31 4CC1 S------q  HLT           18453
8000 0200 0000 4B31 4B31 4B31 4B31 4CC1 S------q  HLT           18457
8000 0200 0000 4B31 4B31 4B31 4B31 4CC1 S------q  HLT           18461
8000 0200 0000 4B31 4B31 4B31 4B31 4CC1 S------q  HLT           18465
8000 0200 0000 4B31 4B31 4B31 4B31 4CC1 S------q  HLT           18469
8000 0200 0000 4B31 4B31 4B31 4B31 4CC1 S------q  HLT           18473
8000 0200 0000 4B31 4B31 4B31 4B31 4CC1 S------q  HLT           18477
8000 0200 0000 4B31 4B31 4B31 4B31 4CC1 S------q  HLT           18481
8000 0200 0000 4B31 4B31 4B31 4B31 4CC1 S------q  HLT           18485
8000 0200 0000 4B31 4B31 4B31 4B31 4CC1 S------q  HLT           18489
8000 0200 0000 4B31 4B31 4B31 4B31 4CC1 S------q  HLT           18493
8000 0200 0000 4B31 4B31 4B31 4B31 4CC1 S------q  HLT           18497
8000 0200 0000 4B31 4B31 4B31 4B31 4CC1 S------q  HLT           18501
8000 0200 0000 4B31 4B31 4B31 4B31 4CC1 S------q  HLT           18505
8000 0200 0000 4B31 4B31 4B31 4B31 4CC1 S------q  HLT           18509
8000 0200 0000 4B31 4B31 4B31 4B31 4CC1 S------q  HLT           18513
8000 0200 0000 4B31 4B31 4B31 4B31 4CC1 S------q  HLT           18517
8000 0200 0000 4B31 4B31 4B31 4B31 4CC1 S------q  HLT           18521
8000 0200 0000 4B31 4B31 4B31 4B31 4CC1 S------q  HLT           18525
8000 0200 0000 4B31 4B31 4B31 4B31 4CC1 S------q  HLT           18529
8000 0200 0000 4B31 4B31 4B31 4B31 4CC1 S------q  HLT           18533
8000 0200 0000 4B31 4B31 4B31 4B31 4CC1 S------q  HLT           18537
8000 0200 0000 4B31 4B31 4B31 4B31 4CC1 S------q  HLT           18541
8000 0200 0000 4B31 4B31 4B31 4B31 4CC1 S------q  HLT           18545
8000 0200 0000 4B31 4B31 4B31 4B31 4CC1 S------q  HLT           18549
8000 0200 0000 4B31 4B31 4B31 4B31 4CC1 S------q  HLT           18553
8000 0200 0000 4B31 4B31 4B31 4B31 4CC1 S------q  HLT           18557
8000 0200 0000 4B31 4B31 4B31 4B31 4CC1 S------q  HLT           18561
8000 0200 0000 4B31 4B31 4B31 4B31 4CC1 S------q  HLT           18565
8000 0200 0000 4B31 4B31 4B31 4B31 4CC1 S------q  HLT           18569
8000 0200 0000 4B31 4B31 4B31 4B31 4CC1 S------q  HLT           18573
8000 0200 0000 4B31 4B31 4B31 4B31 4CC1 S------q  HLT           18577
8000 0200 0000 4B31 4B31 4B31 4B31 4CC1 S------q  HLT           18581
8000 0200 0000 4B31 4B31 4B31 4B31 4CC1 S------q  HLT           18585
8000 0200 0000 4B31 4B31 4B31 4B31 4CC1 S------q  HLT           18589
8000 0200 0000 4B31 4B31 4B31 4B31 4CC1 S------q  HLT           18593
8000 0200 0000 4B31 4B31 4B31 4B31 4CC1 S------q  HLT           18597
8000 0200 0000 4B31 4B31 4B31 4B31 4CC1 S------q  HLT           18601
8000 0200 0000 4B31 4B31 4B31 4B31 4CC1 S------q  HLT           18605
8000 0200 0000 4B31 4B31 4B31 4B31 4CC1 S------q  HLT           18609
8000 0200 0000 4B31 4B31 4B31 4B31 4CC1 S------q  HLT           18613
8000 0200 0000 4B31 4B31 4B31 4B31 4CC1 S------q  HLT           18617
8000 0200 0000 4B31 4B31 4B31 4B31 4CC1 S------q  HLT           18621
8000 0200 0000 4B31 4B31 4B31 4B31 4CC1 S------q  HLT           18625
8000 0200 0000 4B31 4B31 4B31 4B31 4CC1 S------q  HLT           18629
8000 0200 0000 4B31 4B31 4B31 4B31 4CC1 S------q  HLT           18633
8000 0200 0000 4B31 4B31 4B31 4B31 4CC1 S------q  HLT           18637
8000 0200 0000 4B31 4B31 4B31 4B31 4CC1 S------q  HLT           18641
8000 0200 0000 4B31 4B31 4B31 4B31 4CC1 S------q  HLT           18645
8000 0200 0000 4B31 4B31 4B31 4B31 4CC1 S------q  HLT           18649
8000 0200 0000 4B31 4B31 4B31 4B31 4CC1 S------q  HLT           18653
8000 0200 0000 4B31 4B31 4B31 4B31 4CC1 S------q  HLT           18657
8000 0200 0000 4B31 4B31 4B31 4B31 4CC1 S------q  HLT           18661
8000 0200 0000 4B31 4B31 4B31 4B31 4CC1 S------q  HLT           18665
8000 0200 0000 4B31 4B31 4B31 4B31 4CC1 S------q  HLT           18669
8000 0200 0000 4B31 4B31 4B31 4B31 4CC1 S------q  HLT           18673
8000 0200 0000 4B31 4B31 4B31 4B31 4CC1 S------q  HLT           18677
8000 0200 0000 4B31 4B31 4B31 4B31 4CC1 S------q  HLT           18681
8000 0200 0000 4B31 4B31 4B31 4B31 4CC1 S------q  HLT           18685
8000 0200 0000 4B31 4B31 4B31 4B31 4CC1 S------q  HLT           18689
8000 0200 0000 4B31 4B31 4B31 4B31 4CC1 S------q  HLT           18693
8000 0200 0000 4B31 4B31 4B31 4B31 4CC1 S------q  HLT           18697
8000 0200 0000 4B31 4B31 4B31 4B31 4CC1 S------q  HLT           18701
8000 0200 0000 4B31 4B31 4B31 4B31 4CC1 S------q  HLT           18705
8000 0200 0000 4B31 4B31 4B31 4B31 4CC1 S------q  HLT           18709
8000 0200 0000 4B31 4B31 4B31 4B31 4CC1 S------q  HLT           18713
8000 0200 0000 4B31 4B31 4B31 4B31 4CC1 S------q  HLT           18717
8000 0200 0000 4B31 4B31 4B31 4B31 4CC1 S------q  HLT           18721
8000 0200 0000 4B31 4B31 4B31 4B31 4CC1 S------q  HLT           18725
8000 0200 0000 4B31 4B31 4B31 4B31 4CC1 S------q  HLT           18729
8000 0200 0000 4B31 4B31 4B31 4B31 4CC1 S------q  HLT           18733
8000 0200 0000 4B31 4B31 4B31 4B31 4CC1 S------q  HLT           18737
8000 0200 0000 4B31 4B31 4B31 4B31 4CC1 S------q  HLT           18741
8000 0200 0000 4B31 4B31 4B31 4B31 4CC1 S------q  HLT           18745
8000 0200 0000 4B31 4B31 4B31 4B31 4CC1 S------q  HLT           18749
8000 0200 0000 4B31 4B31 4B31 4B31 4CC1 S------q  HLT           18753
8000 0200 0000 4B31 4B31 4B31 4B31 4CC1 S------q  HLT           18757
8000 0200 0000 4B31 4B31 4B31 4B31 4CC1 S------q  HLT           18761
8000 0200 0000 4B31 4B31 4B31 4B31 4CC1 S------q  HLT           18765
8000 0200 0000 4B31 4B31 4B31 4B31 4CC1 S------q  HLT           18769
8000 0200 0000 4B31 4B31 4B31 4B31 4CC1 S------q  HLT           18773
8000 0200 0000 4B31 4B31 4B31 4B31 4CC1 S------q  HLT           18777
8000 0200 0000 4B31 4B31 4B31 4B31 4CC1 S------q  HLT           18781
8000 0200 0000 4B31 4B31 4B31 4B31 4CC1 S------q  HLT           18785
8000 0200 0000 4B31 4B31 4B31 4B31 4CC1 S------q  HLT           18789
8000 0200 0000 4B31 4B31 4B31 4B31 4CC1 S------q  HLT           18793
8000 0200 0000 4B31 4B31 4B31 4B31 4CC1 S------q  HLT           18797
8000 0200 0000 4B31 4B31 4B31 4B31 4CC1 S------q  HLT           18801
8000 0200 0000 4B31 4B31 4B31 4B31 4CC1 S------q  HLT           18805
8000 0200 0000 4B31 4B31 4B31 4B31 4CC1 S------q  HLT           18809
8000 0200 0000 4B31 4B31 4B31 4B31 4CC1 S------q  HLT           18813
8000 0200 0000 4B31 4B31 4B31 4B31 4CC1 S------q  HLT           18817
8000 0200 0000 4B31 4B31 4B31 4B31 4CC1 S------q  HLT           18821
8000 0200 0000 4B31 4B31 4B31 4B31 4CC1 S------q  HLT           18825
8000 0200 0000 4B31 4B31 4B31 4B31 4CC1 S------q  HLT           18829
8000 0200 0000 4B31 4B31 4B31 4B31 4CC1 S------q  HLT           18833
8000 0200 0000 4B31 4B31 4B31 4B31 4CC1 S------q  HLT           18837
8000 0200 0000 4B31 4B31 4B31 4B31 4CC1 S------q  HLT           18841
8000 0200 0000 4B31 4B31 4B31 4B31 4CC1 S------q  HLT           18845
8000 0200 0000 4B31 4B31 4B31 4B31 4CC1 S------q  HLT           18849
8000 0200 0000 4B31 4B31 4B31 4B31 4CC1 S------q  HLT           18853
8000 0200 0000 4B31 4B31 4B31 4B31 4CC1 S------q  HLT           18857
8000 0200 0000 4B31 4B31 4B31 4B31 4CC1 S------q  HLT           18861
8000 0200 0000 4B31 4B31 4B31 4B31 4CC1 S------q  HLT           18865
8000 0200 0000 4B31 4B31 4B31 4B31 4CC1 S------q  HLT           18869
8000 0200 0000 4B31 4B31 4B31 4B31 4CC1 S------q  HLT           18873
8000 0200 0000 4B31 4B31 4B31 4B31 4CC1 S------q  HLT           18877
8000 0200 0000 4B31 4B31 4B31 4B31 4CC1 S------q  HLT           18881
8000 0200 0000 4B31 4B31 4B31 4B31 4CC1 S------q  HLT           18885
8000 0200 0000 4B31 4B31 4B31 4B31 4CC1 S------q  HLT           18889
8000 0200 0000 4B31 4B31 4B31 4B31 4CC1 S------q  HLT           18893
8000 0200 0000 4B31 4B31 4B31 4B31 4CC1 S------q  HLT           18897
8000 0200 0000 4B31 4B31 4B31 4B31 4CC1 S------q  HLT           18901
8000 0200 0000 4B31 4B31 4B31 4B31 4CC1 S------q  HLT           18905
8000 0200 0000 4B31 4B31 4B31 4B31 4CC1 S------q  HLT           18909
8000 0200 0000 4B31 4B31 4B31 4B31 4CC1 S------q  HLT           18913
8000 0200 0000 4B31 4B31 4B31 4B31 4CC1 S------q  HLT           18917
8000 0200 0000 4B31 4B31 4B31 4B31 4CC1 S------q  HLT           18921
8000 0200 0000 4B31 4B31 4B31 4B31 4CC1 S------q  HLT           18925
8000 0200 0000 4B31 4B31 4B31 4B31 4CC1 S------q  HLT           18929
8000 0200 0000 4B31 4B31 4B31 4B31 4CC1 S------q  HLT           18933
8000 0200 0000 4B31 4B31 4B31 4B31 4CC1 S------q  HLT           18937
8000 0200 0000 4B31 4B31 4B31 4B31 4CC1 S------q  HLT           18941
8000 0200 0000 4B31 4B31 4B31 4B31 4CC1 S------q  HLT           18945
8000 0200 0000 4B31 4B31 4B31 4B31 4CC1 S------q  HLT           18949
8000 0200 0000 4B31 4B31 4B31 4B31 4CC1 S------q  HLT           18953
8000 0200 0000 4B31 4B31 4B31 4B31 4CC1 S------q  HLT           18957
8000 0200 0000 4B31 4B31 4B31 4B31 4CC1 S------q  HLT           18961
8000 0200 0000 4B31 4B31 4B31 4B31 4CC1 S------q  HLT           18965
8000 0200 0000 4B31 4B31 4B31 4B31 4CC1 S------q  HLT           18969
8000 0200 0000 4B31 4B31 4B31 4B31 4CC1 S------q  HLT           18973
8000 0200 0000 4B31 4B31 4B31 4B31 4CC1 S------q  HLT           18977
8000 0200 0000 4B31 4B31 4B31 4B31 4CC1 S------q  HLT           18981
8000 0200 0000 4B31 4B31 4B31 4B31 4CC1 S------q  HLT           18985
8000 0200 0000 4B31 4B31 4B31 4B31 4CC1 S------q  HLT           18989
8000 0200 0000 4B31 4B31 4B31 4B31 4CC1 S------q  HLT           18993
8000 0200 0000 4B31 4B31 4B31 4B31 4CC1 S------q  HLT           18997
8000 0200 0000 4B31 4B31 4B31 4B31 4CC1 S------q  HLT           19001
8000 0200 0000 4B31 4B31 4B31 4B31 4CC1 S------q  HLT           19005
8000 0200 0000 4B31 4B31 4B31 4B31 4CC1 S------q  HLT           19009
8000 0200 0000 4B31 4B31 4B31 4B31 4CC1 S------q  HLT           19013
8000 0200 0000 4B31 4B31 4B31 4B31 4CC1 S------q  HLT           19017
8000 0200 0000 4B31 4B31 4B31 4B31 4CC1 S------q  HLT           19021
8000 0200 0000 4B31 4B31 4B31 4B31 4CC1 S------q  HLT           19025
8000 0200 0000 4B31 4B31 4B31 4B31 4CC1 S------q  HLT           19029
8000 0200 0000 4B31 4B31 4B31 4B31 4CC1 S------q  HLT           19033
8000 0200 0000 4B31 4B31 4B31 4B31 4CC1 S------q  HLT           19037
8000 0200 0000 4B31 4B31 4B31 4B31 4CC1 S------q  HLT           19041
8000 0200 0000 4B31 4B31 4B31 4B31 4CC1 S------q  HLT           19045
8000 0200 0000 4B31 4B31 4B31 4B31 4CC1 S------q  HLT           19049
8000 0200 0000 4B31 4B31 4B31 4B31 4CC1 S------q  HLT           19053
8000 0200 0000 4B31 4B31 4B31 4B31 4CC1 S------q  HLT           19057
8000 0200 0000 4B31 4B31 4B31 4B31 4CC1 S------q  HLT           19061
8000 0200 0000 4B31 4B31 4B31 4B31 4CC1 S------q  HLT           19065
8000 0200 0000 4B31 4B31 4B31 4B31 4CC1 S------q  HLT           19069
8000 0200 0000 4B31 4B31 4B31 4B31 4CC1 S------q  HLT           19073
8000 0200 0000 4B31 4B31 4B31 4B31 4CC1 S------q  HLT           19077
8000 0200 0000 4B31 4B31 4B31 4B31 4CC1 S------q  HLT           19081
8000 0200 0000 4B31 4B31 4B31 4B31 4CC1 S------q  HLT           19085
8000 0200 0000 4B31 4B31 4B31 4B31 4CC1 S------q  HLT           19089
8000 0200 0000 4B31 4B31 4B31 4B31 4CC1 S------q  HLT           19093
8000 0200 0000 4B31 4B31 4B31 4B31 4CC1 S------q  HLT           19097
8000 0200 0000 4B31 4B31 4B31 4B31 4CC1 S------q  HLT           19101
8000 0200 0000 4B31 4B31 4B31 4B31 4CC1 S------q  HLT           19105
8000 0200 0000 4B31 4B31 4B31 4B31 4CC1 S------q  HLT           19109
8000 0200 0000 4B31 4B31 4B31 4B31 4CC1 S------q  HLT           19113
8000 0200 0000 4B31 4B31 4B31 4B31 4CC1 S------q  HLT           19117
8000 0200 0000 4B31 4B31 4B31 4B31 4CC1 S------q  HLT           19121
8000 0200 0000 4B31 4B31 4B31 4B31 4CC1 S------q  HLT           19125
8000 0200 0000 4B31 4B31 4B31 4B31 4CC1 S------q  HLT           19129
8000 0200 0000 4B31 4B31 4B31 4B31 4CC1 S------q  HLT           19133
8000 0200 0000 4B31 4B31 4B31 4B31 4CC1 S------q  HLT           19137
8000 0200 0000 4B31 4B31 4B31 4B31 4CC1 S------q  HLT           19141
8000 0200 0000 4B31 4B31 4B31 4B31 4CC1 S------q  HLT           19145
8000 0200 0000 4B31 4B31 4B31 4B31 4CC1 S------q  HLT           19149
8000 0200 0000 4B31 4B31 4B31 4B31 4CC1 S------q  HLT           19153
8000 0200 0000 4B31 4B31 4B31 4B31 4CC1 S------q  HLT           19157
8000 0200 0000 4B31 4B31 4B31 4B31 4CC1 S------q  HLT           19161
8000 0200 0000 4B31 4B31 4B31 4B31 4CC1 S------q  HLT           19165
8000 0200 0000 4B31 4B31 4B31 4B31 4CC1 S------q  HLT           19169
8000 0200 0000 4B31 4B31 4B31 4B31 4CC1 S------q  HLT           19173
8000 0200 0000 4B31 4B31 4B31 4B31 4CC1 S------q  HLT           19177
8000 0200 0000 4B31 4B31 4B31 4B31 4CC1 S------q  HLT           19181
8000 0200 0000 4B31 4B31 4B31 4B31 4CC1 S------q  HLT           19185
8000 0200 0000 4B31 4B31 4B31 4B31 4CC1 S------q  HLT           19189
8000 0200 0000 4B31 4B31 4B31 4B31 4CC1 S------q  HLT           19193
8000 0200 0000 4B31 4B31 4B31 4B31 4CC1 S------q  HLT           19197
8000 0200 0000 4B31 4B31 4B31 4B31 4CC1 S------q  HLT           19201
8000 0200 0000 4B31 4B31 4B31 4B31 4CC1 S------q  HLT           19205
8000 0200 0000 4B31 4B31 4B31 4B31 4CC1 S------q  HLT           19209
8000 0200 0000 4B31 4B31 4B31 4B31 4CC1 S------q  HLT           19213
8000 0200 0000 4B31 4B31 4B31 4B31 4CC1 S------q  HLT           19217
8000 0200 0000 4B31 4B31 4B31 4B31 4CC1 S------q  HLT           19221
8000 0200 0000 4B31 4B31 4B31 4B31 4CC1 S------q  HLT           19225
8000 0200 0000 4B31 4B31 4B31 4B31 4CC1 S------q  HLT           19229
8000 0200 0000 4B31 4B31 4B31 4B31 4CC1 S------q  HLT           19233
8000 0200 0000 4B31 4B31 4B31 4B31 4CC1 S------q  HLT           19237
8000 0200 0000 4B31 4B31 4B31 4B31 4CC1 S------q  HLT           19241
8000 0200 0000 4B31 4B31 4B31 4B31 4CC1 S------q  HLT           19245
8000 0200 0000 4B31 4B31 4B31 4B31 4CC1 S------q  HLT           19249
8000 0200 0000 4B31 4B31 4B31 4B31 4CC1 S------q  HLT           19253
8000 0200 0000 4B31 4B31 4B31 4B31 4CC1 S------q  HLT           19257
8000 0200 0000 4B31 4B31 4B31 4B31 4CC1 S------q  HLT           19261
8000 0200 0000 4B31 4B31 4B31 4B31 4CC1 S------q  HLT           19265
8000 0200 0000 4B31 4B31 4B31 4B31 4CC1 S------q  HLT           19269
8000 0200 0000 4B31 4B31 4B31 4B31 4CC1 S------q  HLT           19273
8000 0200 0000 4B31 4B31 4B31 4B31 4CC1 S------q  HLT           19277
8000 0200 0000 4B31 4B31 4B31 4B31 4CC1 S------q  HLT           19281
8000 0200 0000 4B31 4B31 4B31 4B31 4CC1 S------q  HLT           19285
8000 0200 0000 4B31 4B31 4B31 4B31 4CC1 S------q  HLT           19289
8000 0200 0000 4B31 4B31 4B31 4B31 4CC1 S------q  HLT           19293
8000 0200 0000 4B31 4B31 4B31 4B31 4CC1 S------q  HLT           19297
8000 0200 0000 4B31 4B31 4B31 4B31 4CC1 S------q  HLT           19301
8000 0200 0000 4B31 4B31 4B31 4B31 4CC1 S------q  HLT           19305
8000 0200 0000 4B31 4B31 4B31 4B31 4CC1 S------q  HLT           19309
8000 0200 0000 4B31 4B31 4B31 4B31 4CC1 S------q  HLT           19313
8000 0200 0000 4B31 4B31 4B31 4B31 4CC1 S------q  HLT           19317
8000 0200 0000 4B31 4B31 4B31 4B31 4CC1 S------q  HLT           19321
8000 0200 0000 4B31 4B31 4B31 4B31 4CC1 S------q  HLT           19325
8000 0200 0000 4B31 4B31 4B31 4B31 4CC1 S------q  HLT           19329
8000 0200 0000 4B31 4B31 4B31 4B31 4CC1 S------q  HLT           19333
8000 0200 0000 4B31 4B31 4B31 4B31 4CC1 S------q  HLT           19337
8000 0200 0000 4B31 4B31 4B31 4B31 4CC1 S------q  HLT           19341
8000 0200 0000 4B31 4B31 4B31 4B31 4CC1 S------q  HLT           19345
8000 0200 0000 4B31 4B31 4B31 4B31 4CC1 S------q  HLT           19349
8000 0200 0000 4B31 4B31 4B31 4B31 4CC1 S------q  HLT           19353
8000 0200 0000 4B31 4B31 4B31 4B31 4CC1 S------q  HLT           19357
8000 0200 0000 4B31 4B31 4B31 4B31 4CC1 S------q  HLT           19361
8000 0200 0000 4B31 4B31 4B31 4B31 4CC1 S------q  HLT           19365
8000 0200 0000 4B31 4B31 4B31 4B31 4CC1 S------q  HLT           19369
8000 0200 0000 4B31 4B31 4B31 4B31 4CC1 S------q  HLT           19373
8000 0200 0000 4B31 4B31 4B31 4B31 4CC1 S------q  HLT           19377
8000 0200 0000 4B31 4B31 4B31 4B31 4CC1 S------q  HLT           19381
